###############################################################################
#
# IAR ELF Linker V8.40.1.212/W32 for ARM                  24/Jan/2022  17:00:07
# Copyright 2007-2019 IAR Systems AB.
#
#    Output file                  =
#        D:\tuyaOS\tuya-zigbee-sdk-mg21\app\simple_contact_sensor\EFR32MG21A020F768\build\exe\sdk_route.out
#    Map file                     =
#        D:\tuyaOS\tuya-zigbee-sdk-mg21\app\simple_contact_sensor\EFR32MG21A020F768\build\lst\sdk_route.map
#    Import CMSE library file out =
#        D:\tuyaOS\tuya-zigbee-sdk-mg21\app\simple_contact_sensor\EFR32MG21A020F768\build\exe\tuya_sdk_import_lib.o
#    Command line                 =
#        -f C:\Users\Answer\AppData\Local\Temp\EW33BE.tmp
#        (D:\tuyaOS\tuya-zigbee-sdk-mg21\app\simple_contact_sensor\EFR32MG21A020F768\build\obj\app_common.o
#        D:\tuyaOS\tuya-zigbee-sdk-mg21\lib\iar_lib\EFR32MG21A020F768\binding-table-library.a
#        D:\tuyaOS\tuya-zigbee-sdk-mg21\lib\iar_lib\EFR32MG21A020F768\cbke-163k1-stub-library.a
#        D:\tuyaOS\tuya-zigbee-sdk-mg21\lib\iar_lib\EFR32MG21A020F768\cbke-283k1-stub-library.a
#        D:\tuyaOS\tuya-zigbee-sdk-mg21\lib\iar_lib\EFR32MG21A020F768\cbke-library-dsa-sign-stub.a
#        D:\tuyaOS\tuya-zigbee-sdk-mg21\lib\iar_lib\EFR32MG21A020F768\cbke-library-dsa-verify-283k1-stub.a
#        D:\tuyaOS\tuya-zigbee-sdk-mg21\lib\iar_lib\EFR32MG21A020F768\cbke-library-dsa-verify-stub.a
#        D:\tuyaOS\tuya-zigbee-sdk-mg21\lib\iar_lib\EFR32MG21A020F768\cbke-stub-library.a
#        D:\tuyaOS\tuya-zigbee-sdk-mg21\app\simple_contact_sensor\EFR32MG21A020F768\build\obj\config.o
#        D:\tuyaOS\tuya-zigbee-sdk-mg21\lib\iar_lib\EFR32MG21A020F768\debug-basic-stub-library.a
#        D:\tuyaOS\tuya-zigbee-sdk-mg21\lib\iar_lib\EFR32MG21A020F768\debug-extended-stub-library.a
#        D:\tuyaOS\tuya-zigbee-sdk-mg21\app\simple_contact_sensor\EFR32MG21A020F768\build\obj\device_register.o
#        D:\tuyaOS\tuya-zigbee-sdk-mg21\lib\iar_lib\EFR32MG21A020F768\end-device-bind-stub-library.a
#        D:\tuyaOS\tuya-zigbee-sdk-mg21\lib\iar_lib\EFR32MG21A020F768\gp-stub-library.a
#        D:\tuyaOS\tuya-zigbee-sdk-mg21\lib\iar_lib\EFR32MG21A020F768\hal-library.a
#        D:\tuyaOS\tuya-zigbee-sdk-mg21\app\simple_contact_sensor\EFR32MG21A020F768\build\obj\ias_zone_cluster.o
#        D:\tuyaOS\tuya-zigbee-sdk-mg21\lib\iar_lib\EFR32MG21A020F768\install-code-library.a
#        D:\tuyaOS\tuya-zigbee-sdk-mg21\lib\iar_lib\EFR32MG21A020F768\libnvm3_CM33_iar.a
#        D:\tuyaOS\tuya-zigbee-sdk-mg21\lib\iar_lib\EFR32MG21A020F768\librail_efr32xg21_iar_release.a
#        D:\tuyaOS\tuya-zigbee-sdk-mg21\lib\iar_lib\EFR32MG21A020F768\mfglib-library.a
#        D:\tuyaOS\tuya-zigbee-sdk-mg21\lib\iar_lib\EFR32MG21A020F768\multi-network-stub-library.a
#        D:\tuyaOS\tuya-zigbee-sdk-mg21\lib\iar_lib\EFR32MG21A020F768\packet-validate-library.a
#        D:\tuyaOS\tuya-zigbee-sdk-mg21\lib\iar_lib\EFR32MG21A020F768\security-library-core.a
#        D:\tuyaOS\tuya-zigbee-sdk-mg21\lib\iar_lib\EFR32MG21A020F768\security-library-link-keys-stub.a
#        D:\tuyaOS\tuya-zigbee-sdk-mg21\lib\iar_lib\EFR32MG21A020F768\sim-eeprom2-to-nvm3-upgrade-stub-library.a
#        D:\tuyaOS\tuya-zigbee-sdk-mg21\app\simple_contact_sensor\EFR32MG21A020F768\build\obj\simple_contact_sensor_callback.o
#        D:\tuyaOS\tuya-zigbee-sdk-mg21\lib\iar_lib\EFR32MG21A020F768\tuya_sdk.a
#        D:\tuyaOS\tuya-zigbee-sdk-mg21\lib\iar_lib\EFR32MG21A020F768\tuya_sdk_zll_client.a
#        D:\tuyaOS\tuya-zigbee-sdk-mg21\lib\iar_lib\EFR32MG21A020F768\tuya_sdk_zll_client_server.a
#        D:\tuyaOS\tuya-zigbee-sdk-mg21\lib\iar_lib\EFR32MG21A020F768\tuya_sdk_zll_light.a
#        D:\tuyaOS\tuya-zigbee-sdk-mg21\lib\iar_lib\EFR32MG21A020F768\zigbee-pro-stack.a
#        D:\tuyaOS\tuya-zigbee-sdk-mg21\lib\iar_lib\EFR32MG21A020F768\zigbee-r22-support-stub-library.a
#        D:\tuyaOS\tuya-zigbee-sdk-mg21\lib\iar_lib\EFR32MG21A020F768\zll-library.a
#        D:\tuyaOS\tuya-zigbee-sdk-mg21\lib\iar_lib\EFR32MG21A020F768\zll-stub-library.a
#        --redirect _Printf=_PrintfSmallNoMb --redirect _Scanf=_ScanfFullNoMb
#        --no_out_extension -o
#        D:\tuyaOS\tuya-zigbee-sdk-mg21\app\simple_contact_sensor\EFR32MG21A020F768\build\exe\sdk_route.out
#        --config_def FLASH_SIZE=786432 --config_def RAM_SIZE=65536
#        --config_def SIMEEPROM_SIZE=32768 --config_def
#        LOCKBITS_IN_MAINFLASH_SIZE=8192 --config_def APP_BTL=1 --config_def
#        EMBER_MALLOC_HEAP_SIZE=10240 --map
#        D:\tuyaOS\tuya-zigbee-sdk-mg21\app\simple_contact_sensor\EFR32MG21A020F768\build\lst\sdk_route.map
#        --log initialization,modules,sections,veneers --log_file
#        D:\tuyaOS\tuya-zigbee-sdk-mg21\app\simple_contact_sensor\EFR32MG21A020F768\build\lst\sdk_route.log
#        --config
#        D:\tuyaOS\tuya-zigbee-sdk-mg21\app\simple_contact_sensor\EFR32MG21A020F768\..\..\..\tools\iar_tools\icf\main_icf\iar-cfg.icf
#        --diag_suppress Lp012 --entry __iar_program_start --no_vfe
#        --utf8_text_in --text_out utf8 --import_cmse_lib_out
#        D:\tuyaOS\tuya-zigbee-sdk-mg21\app\simple_contact_sensor\EFR32MG21A020F768\build\exe\tuya_sdk_import_lib.o)
#
###############################################################################

*******************************************************************************
*** RUNTIME MODEL ATTRIBUTES
***

CppFlavor       = *
__Heap_Handler  = DLMalloc
__SystemLibrary = DLib
__dlib_version  = 6


*******************************************************************************
*** HEAP SELECTION
***

The advanced heap was selected because the application calls memory
allocation functions outside of system library functions, and there
are calls to deallocation functions in the application.


*******************************************************************************
*** PLACEMENT SUMMARY
***

"BAT": place at address 0x0 { section BAT };
define block HEADER_block with fixed order { ro section AAT };
"HEADERS":
       place at start of [from 0x4000 to 0x41ff] { block HEADER_block };
define block APPRO_block
   with fixed order {
      ro section .intvec, ro section .textrw_init, ro section .gatt_header,
      ro section .gatt_data, ro section .text, ro section CODE,
      ro section .rodata, ro section .data_init, ro section .iar.init_table,
      ro section __DLIB_PERTHREAD_init };
"APP ro":
       place at start of [from 0x4200 to 0xb'ffff] { block APPRO_block };
"NVM&SIMEE&LOCKBITS":
       place at end of [from 0x4200 to 0xb'ffff] {
          zi section NVM, zi section SIMEE, zi section INTERNAL_STORAGE,
          zi section PSSTORE, zi section LOCKBITS_IN_MAINFLASH };
define block ALIGN_EMHEAP with alignment = 8 { rw section EMHEAP };
define block RESETHEAP
   with fixed order { rw section RESETINFO, block ALIGN_EMHEAP };
"ResetHeap":
       place at start of [from 0x2000'0000 to 0x2000'ffef] { block RESETHEAP };
"Guard":
       place in [from 0x2000'0000 to 0x2000'ffef] { rw section GUARD_REGION };
define block ALIGN_CSTACK with alignment = 8 { rw section CSTACK };
define block DLIB_PERTHREAD_INITIALIZED_DATA { rw section __DLIB_PERTHREAD };
define block DLIB_PERTHREAD_ZERO_DATA { zi section __DLIB_PERTHREAD };
define block HEAP with size = 10K, alignment = 8 { };
define block APPRW_block
   with fixed order {
      block ALIGN_CSTACK, rw section .textrw, rw section .data,
      block DLIB_PERTHREAD_INITIALIZED_DATA, block DLIB_PERTHREAD_ZERO_DATA,
      rw section .bss, rw section .noinit, block HEAP };
"APP rw":
       place at end of [from 0x2000'0000 to 0x2000'ffef] { block APPRW_block };
do not initialize {
   rw section .noinit, rw section CSTACK, rw section RESETINFO,
   rw section EMHEAP, zi section NVM, zi section SIMEE,
   zi section INTERNAL_STORAGE, zi section PSSTORE,
   zi section LOCKBITS_IN_MAINFLASH };
initialize by copy { rw };

No sections matched the following patterns:

  ro section .gatt_data             in block APPRO_block
  ro section .gatt_header           in block APPRO_block
  ro section .iar.init_table        in block APPRO_block
  ro section CODE                   in block APPRO_block
  ro section __DLIB_PERTHREAD_init  in block APPRO_block
  rw section .noinit                in block APPRW_block
  rw section DEBUG_CHANNEL          in "DEBUGCHAN"
  rw section __DLIB_PERTHREAD       in block DLIB_PERTHREAD_INITIALIZED_DATA
  zi section INTERNAL_STORAGE       in "NVM&SIMEE&LOCKBITS"
  zi section NVM                    in "NVM&SIMEE&LOCKBITS"
  zi section PSSTORE                in "NVM&SIMEE&LOCKBITS"
  zi section __DLIB_PERTHREAD       in block DLIB_PERTHREAD_ZERO_DATA


  Section                 Kind         Address      Size  Object
  -------                 ----         -------      ----  ------
"BAT":                                              0x54
  BAT                     uninit           0x0      0x54  cstartup-common.o [26]
                                        - 0x54      0x54

"HEADERS":                                          0xac
  HEADER_block                          0x4000      0xac  <Block>
    AAT                   const         0x4000      0xac  cstartup-common.o [26]
                                      - 0x40ac      0xac

"APP ro":                                       0x3'6fa0
  APPRO_block                           0x4200  0x3'6fa0  <Block>
    .intvec               const         0x4200     0x134  startup_efr32mg21.o [14]
    Initializer bytes     const         0x4334     0x14a  <for rw section .textrw-1>
    .text                               0x4480  0x3'3b18  <Block>
      .text               ro code       0x4480     0x3f8  app_common.o [1]
      .text               ro code       0x4878     0x670  hal_uart_api.o [26]
      .text               ro code       0x4ee8      0x66  ABImemset.o [22]
      .text               ro code       0x4f4e       0x2  startup_efr32mg21.o [14]
      .text               ro code       0x4f50      0x76  ABImemcpy_unaligned.o [22]
      .text               ro code       0x4fc6       0x2  startup_efr32mg21.o [14]
      .text               ro code       0x4fc8     0x870  dev_gpio.o [26]
      .text               ro code       0x5838     0x550  ias_zone_cluster.o [1]
      .text               ro code       0x5d88     0x56c  dev_evt_pool.o [26]
      .text               ro code       0x62f4     0xfdc  network_manager.o [26]
      .text               ro code       0x72d0    0x1644  zigbee_sdk_core.o [26]
      .text               ro code       0x8914     0x444  hal_battery.o [26]
      .text               ro code       0x8d58     0x23e  em_usart.o [26]
      .text               ro code       0x8f96       0x2  startup_efr32mg21.o [14]
      .text               ro code       0x8f98      0x2e  com.o [26]
      .text               ro code       0x8fc6       0x2  startup_efr32mg21.o [14]
      .text               ro code       0x8fc8     0x168  em_gpio.o [26]
      .text               ro code       0x9130     0x2e6  ember-printf.o [26]
      .text               ro code       0x9416       0xc  em_core.o [26]
      .text               ro code       0x9422       0x6  em_core.o [26]
      .text               ro code       0x9428     0x636  zigbee_sdk_end_device_handle.o [26]
      .text               ro code       0x9a5e       0x2  zigbee_sdk_core.o [26]
      .text               ro code       0x9a60      0xec  gpiointerrupt.o [26]
      .text               ro code       0x9b4c    0x13c0  create_zigbee_dev.o [26]
      .text               ro code       0xaf0c      0x3a  ABImemset48.o [22]
      .text               ro code       0xaf46       0x2  startup_efr32mg21.o [14]
      .text               ro code       0xaf48     0x250  event-control.o [27]
      .text               ro code       0xb198      0xd0  system-timer.o [14]
      .text               ro code       0xb268     0x2c8  token.o [26]
      .text               ro code       0xb530       0x2  network_manager.o [26]
      .text               ro code       0xb532       0x2  startup_efr32mg21.o [14]
      .text               ro code       0xb534     0xfda  silicon_lab_modify.o [26]
      .text               ro code       0xc50e       0x2  startup_efr32mg21.o [14]
      .text               ro code       0xc510     0x47a  af-main-soc.o [26]
      .text               ro code       0xc98a       0x2  startup_efr32mg21.o [14]
      .text               ro code       0xc98c     0x46c  zigbee-stack.o [27]
      .text               ro code       0xcdf8     0x200  ember-stack-common.o [27]
      .text               ro code       0xcff8     0x500  dev_common_utils.o [26]
      .text               ro code       0xd4f8      0x2e  find-and-bind-target.o [26]
      .text               ro code       0xd526       0x2  startup_efr32mg21.o [14]
      .text               ro code       0xd528     0x1b2  simple_contact_sensor_callback.o [1]
      .text               ro code       0xd6da       0x2  startup_efr32mg21.o [14]
      .text               ro code       0xd6dc     0x2b4  time_sync.o [26]
      .text               ro code       0xd990     0x4d0  binding-table.o [2]
      .text               ro code       0xde60     0x62c  scenes.o [26]
      .text               ro code       0xe48c     0x3f2  leave.o [27]
      .text               ro code       0xe87e       0x2  startup_efr32mg21.o [14]
      .text               ro code       0xe880     0x62c  network-steering.o [26]
      .text               ro code       0xeeac     0xec4  ota-client.o [26]
      .text               ro code       0xfd70     0x492  attribute-table.o [26]
      .text               ro code     0x1'0202       0x4  network_manager.o [26]
      .text               ro code     0x1'0206       0x2  startup_efr32mg21.o [14]
      .text               ro code     0x1'0208     0x834  neighbor.o [27]
      .text               ro code     0x1'0a3c      0x18  network_manager.o [26]
      .text               ro code     0x1'0a54     0x744  packet-buffer.o [27]
      .text               ro code     0x1'1198      0x36  strlen.o [22]
      .text               ro code     0x1'11ce       0x2  startup_efr32mg21.o [14]
      .text               ro code     0x1'11d0      0x18  strcpy.o [22]
      .text               ro code     0x1'11e8    0x11a8  mf_test.o [26]
      .text               ro code     0x1'2390    0x149c  dlmalloc.o [11]
      .text               ro code     0x1'382c      0xb6  dev_queue.o [26]
      .text               ro code     0x1'38e2       0x2  startup_efr32mg21.o [14]
      .text               ro code     0x1'38e4      0x62  memcmp_unaligned.o [22]
      .text               ro code     0x1'3946       0x4  heaptramp0.o [11]
      .text               ro code     0x1'394a       0x2  startup_efr32mg21.o [14]
      .text               ro code     0x1'394c      0x1c  config.o [1]
      .text               ro code     0x1'3968      0xb4  idle-sleep.o [26]
      .text               ro code     0x1'3a1c       0x4  hal_common_tools.o [26]
      .text               ro code     0x1'3a20     0x330  ecc_use.o [26]
      .text               ro code     0x1'3d50      0xdc  micro-common.o [26]
      .text               ro code     0x1'3e2c      0xf0  update-tc-link-key.o [26]
      .text               ro code     0x1'3f1c     0x6a6  attribute-storage.o [26]
      .text               ro code     0x1'45c2       0x2  startup_efr32mg21.o [14]
      .text               ro code     0x1'45c4     0x80c  util.o [26]
      .text               ro code     0x1'4dd0     0x470  call-command-handler.o [26]
      .text               ro code     0x1'5240     0x418  client-api.o [26]
      .text               ro code     0x1'5658      0x40  sprintf.o [11]
      .text               ro code     0x1'5698       0x2  zigbee_sdk_core.o [26]
      .text               ro code     0x1'569a       0x2  zigbee_sdk_core.o [26]
      .text               ro code     0x1'569c     0x1a8  user_flash.o [26]
      .text               ro code     0x1'5844       0x2  zigbee_sdk_core.o [26]
      .text               ro code     0x1'5846       0x2  startup_efr32mg21.o [14]
      .text               ro code     0x1'5848      0xe6  em_wdog.o [26]
      .text               ro code     0x1'592e       0x4  zigbee_sdk_core.o [26]
      .text               ro code     0x1'5932       0x2  startup_efr32mg21.o [14]
      .text               ro code     0x1'5934     0x1e8  hal_adc.o [26]
      .text               ro code     0x1'5b1c     0x908  em_cmu.o [26]
      .text               ro code     0x1'6424      0x14  polling-soc.o [26]
      .text               ro code     0x1'6438    0x197c  association.o [27]
      .text               ro code     0x1'7db4       0x4  zigbee_sdk_end_device_handle.o [26]
      .text               ro code     0x1'7db8       0x4  callback-stub.o [26]
      .text               ro code     0x1'7dbc       0x4  callback-stub.o [26]
      .text               ro code     0x1'7dc0     0x2c4  ember-multi-network-stub.o [20]
      .text               ro code     0x1'8084      0x48  assert-crash-handlers.o [26]
      .text               ro code     0x1'80cc      0x1a  em_core.o [26]
      .text               ro code     0x1'80e6      0x46  ember-configuration.o [26]
      .text               ro code     0x1'812c       0x8  em_core.o [26]
      .text               ro code     0x1'8134     0x690  rtcdriver.o [26]
      .text               ro code     0x1'87c4     0x1e0  ustimer.o [26]
      .text               ro code     0x1'89a4     0x1ec  sleep-efm32.o [26]
      .text               ro code     0x1'8b90       0x4  sim-eeprom2-to-nvm3-upgrade-stub.o [25]
      .text               ro code     0x1'8b94    0x1a66  nvm3.o [16]
      .text               ro code     0x1'a5fa       0x2  startup_efr32mg21.o [14]
      .text               ro code     0x1'a5fc     0x2d8  mfg-token.o [26]
      .text               ro code     0x1'a8d4       0x6  ember-base-configuration.o [26]
      .text               ro code     0x1'a8da       0x2  startup_efr32mg21.o [14]
      .text               ro code     0x1'a8dc     0x6d0  micro.o [26]
      .text               ro code     0x1'afac       0x2  silicon_lab_modify.o [26]
      .text               ro code     0x1'afae       0x4  callback-stub.o [26]
      .text               ro code     0x1'afb2       0x2  silicon_lab_modify.o [26]
      .text               ro code     0x1'afb4      0x58  multi-network.o [26]
      .text               ro code     0x1'b00c     0x694  af-main-common.o [26]
      .text               ro code     0x1'b6a0      0x46  afv2-bookkeeping.o [26]
      .text               ro code     0x1'b6e6       0x2  startup_efr32mg21.o [14]
      .text               ro code     0x1'b6e8      0x10  security-address-cache.o [26]
      .text               ro code     0x1'b6f8       0x2  silicon_lab_modify.o [26]
      .text               ro code     0x1'b6fa       0x2  startup_efr32mg21.o [14]
      .text               ro code     0x1'b6fc    0x134c  phy.o [27]
      .text               ro code     0x1'ca48      0x22  serial.o [26]
      .text               ro code     0x1'ca6a       0x2  startup_efr32mg21.o [14]
      .text               ro code     0x1'ca6c     0x174  af-event.o [26]
      .text               ro code     0x1'cbe0      0x10  crypto-state.o [26]
      .text               ro code     0x1'cbf0      0xc6  mem-util.o [26]
      .text               ro code     0x1'ccb6       0x2  startup_efr32mg21.o [14]
      .text               ro code     0x1'ccb8     0x1d4  ota-storage-common.o [26]
      .text               ro code     0x1'ce8c     0x2e4  ota-storage-eeprom.o [26]
      .text               ro code     0x1'd170       0xa  ota-bootload-soc.o [26]
      .text               ro code     0x1'd17a       0x2  startup_efr32mg21.o [14]
      .text               ro code     0x1'd17c     0x17e  message.o [26]
      .text               ro code     0x1'd2fa       0x2  startup_efr32mg21.o [14]
      .text               ro code     0x1'd2fc     0x47a  groups-server.o [26]
      .text               ro code     0x1'd776       0x4  scenes.o [26]
      .text               ro code     0x1'd77a       0x2  startup_efr32mg21.o [14]
      .text               ro code     0x1'd77c      0x2c  attribute-size.o [26]
      .text               ro code     0x1'd7a8     0x7f8  reporting.o [26]
      .text               ro code     0x1'dfa0     0x228  time-util.o [26]
      .text               ro code     0x1'e1c8       0x4  callback-stub.o [26]
      .text               ro code     0x1'e1cc       0x4  callback-stub.o [26]
      .text               ro code     0x1'e1d0       0x4  callback-stub.o [26]
      .text               ro code     0x1'e1d4       0x4  callback-stub.o [26]
      .text               ro code     0x1'e1d8       0x4  callback-stub.o [26]
      .text               ro code     0x1'e1dc       0x2  silicon_lab_modify.o [26]
      .text               ro code     0x1'e1de       0x2  silicon_lab_modify.o [26]
      .text               ro code     0x1'e1e0      0xd4  zcl_command_micro.o [26]
      .text               ro code     0x1'e2b4     0xa58  application-support.o [27]
      .text               ro code     0x1'ed0c     0x100  zigbee-dispatch.o [27]
      .text               ro code     0x1'ee0c     0x340  address-table.o [27]
      .text               ro code     0x1'f14c       0x4  callback-stub.o [26]
      .text               ro code     0x1'f150       0x4  callback-stub.o [26]
      .text               ro code     0x1'f154       0x4  callback-stub.o [26]
      .text               ro code     0x1'f158       0x4  callback-stub.o [26]
      .text               ro code     0x1'f15c       0x4  callback-stub.o [26]
      .text               ro code     0x1'f160     0x396  form-and-join.o [26]
      .text               ro code     0x1'f4f6       0x2  startup_efr32mg21.o [14]
      .text               ro code     0x1'f4f8     0x174  scan-dispatch.o [26]
      .text               ro code     0x1'f66c       0x2  callback-stub.o [26]
      .text               ro code     0x1'f66e       0x8  debug-platform-stub.o [9]
      .text               ro code     0x1'f676       0x2  startup_efr32mg21.o [14]
      .text               ro code     0x1'f678      0x90  ember-library.o [27]
      .text               ro code     0x1'f708     0x360  rail_rf.o [17]
      .text               ro code     0x1'fa68      0x12  phy-util.o [27]
      .text               ro code     0x1'fa7a       0x6  debug-stub.o [9]
      .text               ro code     0x1'fa80      0x34  mac-dispatch.o [27]
      .text               ro code     0x1'fab4    0x1928  network.o [27]
      .text               ro code     0x2'13dc       0x6  cbke-crypto-engine-163k1-stub.o [3]
      .text               ro code     0x2'13e2       0x6  cbke-crypto-engine-283k1-stub.o [4]
      .text               ro code     0x2'13e8     0x740  zll-api.o [29]
      .text               ro code     0x2'1b28     0x1c4  broadcast.o [27]
      .text               ro code     0x2'1cec     0x538  route-table.o [27]
      .text               ro code     0x2'2224     0x420  lower-mac-efr32.o [27]
      .text               ro code     0x2'2644     0x168  child-aging.o [27]
      .text               ro code     0x2'27ac     0x5b5  mac-indirect.o [27]
      .text               ro code     0x2'2d62       0x2  startup_efr32mg21.o [14]
      .text               ro code     0x2'2d64     0x45c  zdo-channel.o [27]
      .text               ro code     0x2'31c0     0x8fc  aps-retry.o [27]
      .text               ro code     0x2'3abc       0xe  cbke-crypto-engine-stub.o [8]
      .text               ro code     0x2'3aca       0x2  startup_efr32mg21.o [14]
      .text               ro code     0x2'3acc     0x9d8  upper-mac.o [27]
      .text               ro code     0x2'44a4      0x58  micro-common-internal.o [14]
      .text               ro code     0x2'44fc     0x302  retry.o [27]
      .text               ro code     0x2'47fe       0x8  debug-extended-stub.o [10]
      .text               ro code     0x2'4806       0x2  startup_efr32mg21.o [14]
      .text               ro code     0x2'4808     0x6b4  child.o [27]
      .text               ro code     0x2'4ebc     0x6b0  aps-keys.o [23]
      .text               ro code     0x2'556c     0x1f8  zigbee-neighbor.o [27]
      .text               ro code     0x2'5764     0x2f8  management.o [27]
      .text               ro code     0x2'5a5c      0x10  ember-random-api.o [27]
      .text               ro code     0x2'5a6c      0x44  snprintf.o [11]
      .text               ro code     0x2'5ab0      0x54  random.o [26]
      .text               ro code     0x2'5b04      0x24  device_register.o [1]
      .text               ro code     0x2'5b28     0x728  scan.o [27]
      .text               ro code     0x2'6250      0x1c  zdo-r22-stub.o [28]
      .text               ro code     0x2'626c       0x8  ember-multi-phy-stub.o [27]
      .text               ro code     0x2'6274     0x258  packet-header.o [27]
      .text               ro code     0x2'64cc      0x5e  byte-utilities.o [27]
      .text               ro code     0x2'652a       0x2  startup_efr32mg21.o [14]
      .text               ro code     0x2'652c     0x5d0  zigbee-packet-header.o [27]
      .text               ro code     0x2'6afc     0xdb8  aps-security.o [23]
      .text               ro code     0x2'78b4      0x60  af-trust-center.o [26]
      .text               ro code     0x2'7914      0x48  child-table.o [27]
      .text               ro code     0x2'795c      0x54  network-steering-soc.o [26]
      .text               ro code     0x2'79b0      0x14  callback-stub.o [26]
      .text               ro code     0x2'79c4      0x50  print-formatter.o [26]
      .text               ro code     0x2'7a14       0x4  af-security-common.o [26]
      .text               ro code     0x2'7a18     0x34c  ota-storage-simple.o [26]
      .text               ro code     0x2'7d64      0x20  ota-client-page-request.o [26]
      .text               ro code     0x2'7d84     0x4fc  service-discovery-common.o [26]
      .text               ro code     0x2'8280     0x330  ota-storage-eeprom-page-erase.o [26]
      .text               ro code     0x2'85b0      0x3a  ota-common.o [26]
      .text               ro code     0x2'85ea      0x74  ota-client-policy.o [26]
      .text               ro code     0x2'865e       0x4  ota-client-signature-verify.o [26]
      .text               ro code     0x2'8662       0x2  callback-stub.o [26]
      .text               ro code     0x2'8664       0x4  callback-stub.o [26]
      .text               ro code     0x2'8668       0x4  callback-stub.o [26]
      .text               ro code     0x2'866c     0x3a4  neighbor-exchange.o [27]
      .text               ro code     0x2'8a10      0x64  unicast-table.o [27]
      .text               ro code     0x2'8a74     0x36c  random-id.o [27]
      .text               ro code     0x2'8de0     0x174  mfglib.o [19]
      .text               ro code     0x2'8f54     0x380  jsmn.o [26]
      .text               ro code     0x2'92d4     0x15c  em_se.o [26]
      .text               ro code     0x2'9430       0x6  abort.o [11]
      .text               ro code     0x2'9436       0x2  startup_efr32mg21.o [14]
      .text               ro code     0x2'9438      0x2c  xgetmemchunk.o [11]
      .text               ro code     0x2'9464      0xcc  cstartup-common.o [26]
      .text               ro code     0x2'9530     0xed4  uECC.o [26]
      .text               ro code     0x2'a404       0x2  startup_efr32mg21.o [14]
      .text               ro code     0x2'a406       0x2  startup_efr32mg21.o [14]
      .text               ro code     0x2'a408      0x94  network-steering.o [26]
      .text               ro code     0x2'a49c      0x18  update-tc-link-key.o [26]
      .text               ro code     0x2'a4b4       0x2  callback-stub.o [26]
      .text               ro code     0x2'a4b6       0x2  startup_efr32mg21.o [14]
      .text               ro code     0x2'a4b8      0xee  idle-sleep-soc.o [26]
      .text               ro code     0x2'a5a6       0x2  startup_efr32mg21.o [14]
      .text               ro code     0x2'a5a8     0x1c0  counters-soc.o [26]
      .text               ro code     0x2'a768     0x398  eeprom.o [26]
      .text               ro code     0x2'ab00       0x2  callback-stub.o [26]
      .text               ro code     0x2'ab02       0x2  callback-stub.o [26]
      .text               ro code     0x2'ab04       0x4  callback-stub.o [26]
      .text               ro code     0x2'ab08       0x4  callback-stub.o [26]
      .text               ro code     0x2'ab0c       0x4  callback-stub.o [26]
      .text               ro code     0x2'ab10     0x138  identify.o [26]
      .text               ro code     0x2'ac48     0x1d4  zll-scenes-server.o [26]
      .text               ro code     0x2'ae1c     0x501  xprintfsmall_nomb.o [11]
      .text               ro code     0x2'b31e       0x2  startup_efr32mg21.o [14]
      .text               ro code     0x2'b320     0x5a6  em_iadc.o [26]
      .text               ro code     0x2'b8c6       0x2  startup_efr32mg21.o [14]
      .text               ro code     0x2'b8c8     0x144  system_efr32mg21.o [14]
      .text               ro code     0x2'ba0c     0x300  child-handling.o [27]
      .text               ro code     0x2'bd0c     0x908  zigbee-device-util.o [27]
      .text               ro code     0x2'c614     0x184  token-cache.o [27]
      .text               ro code     0x2'c798     0x628  command.o [27]
      .text               ro code     0x2'cdc0     0x65c  trust-center-util.o [23]
      .text               ro code     0x2'd41c      0x34  mac-info-element-parsing-stub.o [28]
      .text               ro code     0x2'd450       0x8  packet-handoff.o [26]
      .text               ro code     0x2'd458      0x28  enhanced-beacon-request-stub.o [28]
      .text               ro code     0x2'd480       0x6  ABImemclr4.o [22]
      .text               ro code     0x2'd486      0x16  gp-stub.o [13]
      .text               ro code     0x2'd49c       0x8  em_core.o [26]
      .text               ro code     0x2'd4a4      0xb8  em_rtcc.o [26]
      .text               ro code     0x2'd55c     0x230  I64DivMod.o [22]
      .text               ro code     0x2'd78c      0x14  memset.o [22]
      .text               ro code     0x2'd7a0     0x1e8  em_timer.o [26]
      .text               ro code     0x2'd988      0xdc  em_emu.o [26]
      .text               ro code     0x2'da64     0x256  nvm3_page.o [16]
      .text               ro code     0x2'dcba       0x2  startup_efr32mg21.o [14]
      .text               ro code     0x2'dcbc     0x1ba  nvm3_object.o [16]
      .text               ro code     0x2'de76       0x2  startup_efr32mg21.o [14]
      .text               ro code     0x2'de78     0x28e  nvm3_cache.o [16]
      .text               ro code     0x2'e106      0x3e  nvm3_utils.o [16]
      .text               ro code     0x2'e144      0x18  nvm3_lock.o [26]
      .text               ro code     0x2'e15c      0x1c  nvm3_lock.o [26]
      Veneer              ro code     0x2'e178       0x8  - Linker created -
      .text               ro code     0x2'e180      0x68  flash.o [14]
      .text               ro code     0x2'e1e8      0x20  em_system.o [26]
      .text               ro code     0x2'e208      0xb4  hal-config.o [26]
      .text               ro code     0x2'e2bc     0x214  tempdrv.o [26]
      .text               ro code     0x2'e4d0      0x1c  pa_conversions_efr32.o [17]
      .text               ro code     0x2'e4ec       0x4  hal-config-gpio.o [26]
      .text               ro code     0x2'e4f0       0xc  coexistence-802154.o [26]
      .text               ro code     0x2'e4fc       0x4  callback-stub.o [26]
      .text               ro code     0x2'e500      0x60  end-device-support.o [26]
      .text               ro code     0x2'e560     0x204  zigbee-device-library.o [26]
      .text               ro code     0x2'e764       0x2  callback-stub.o [26]
      .text               ro code     0x2'e766       0x4  callback-stub.o [26]
      .text               ro code     0x2'e76a       0x4  callback-stub.o [26]
      .text               ro code     0x2'e76e       0x2  callback-stub.o [26]
      .text               ro code     0x2'e770      0xe4  tuya_sdk_callbacks.o [26]
      .text               ro code     0x2'e854       0x2  callback-stub.o [26]
      .text               ro code     0x2'e856       0x4  callback-stub.o [26]
      .text               ro code     0x2'e85a       0x2  callback-stub.o [26]
      .text               ro code     0x2'e85c      0x10  callback-stub.o [26]
      .text               ro code     0x2'e86c       0x4  callback-stub.o [26]
      .text               ro code     0x2'e870     0x130  rail_singleprotocol.o [17]
      .text               ro code     0x2'e9a0      0xbe  rail_calibration.o [17]
      .text               ro code     0x2'ea5e      0xb8  rail_tx.o [17]
      .text               ro code     0x2'eb16       0x2  startup_efr32mg21.o [14]
      .text               ro code     0x2'eb18     0x1d0  rail_ieee802154.o [17]
      .text               ro code     0x2'ece8      0x5e  duty-cycle-stub.o [27]
      .text               ro code     0x2'ed46       0xc  antenna-stub.o [26]
      .text               ro code     0x2'ed52       0x2  startup_efr32mg21.o [14]
      .text               ro code     0x2'ed54      0xa0  rail_data.o [17]
      .text               ro code     0x2'edf4      0x26  rail_rx.o [17]
      .text               ro code     0x2'ee1a       0x2  startup_efr32mg21.o [14]
      .text               ro code     0x2'ee1c      0x18  eui64.o [27]
      .text               ro code     0x2'ee34      0xb0  rail_autoack.o [17]
      .text               ro code     0x2'eee4       0x6  rail_pti.o [17]
      .text               ro code     0x2'eeea       0x2  startup_efr32mg21.o [14]
      .text               ro code     0x2'eeec     0x2ac  bootloader-interface-app.o [26]
      .text               ro code     0x2'f198       0x4  callback-stub.o [26]
      .text               ro code     0x2'f19c       0x2  callback-stub.o [26]
      .text               ro code     0x2'f19e       0x2  callback-stub.o [26]
      .text               ro code     0x2'f1a0       0x4  callback-stub.o [26]
      .text               ro code     0x2'f1a4      0x70  reporting-default-configuration.o [26]
      .text               ro code     0x2'f214      0xd4  time-server.o [26]
      .text               ro code     0x2'f2e8       0x2  callback-stub.o [26]
      .text               ro code     0x2'f2ea       0x4  cbke-crypto-engine-dsa-sign-stub.o [5]
      .text               ro code     0x2'f2ee       0x2  startup_efr32mg21.o [14]
      .text               ro code     0x2'f2f0     0x4fc  aps-encryption.o [23]
      .text               ro code     0x2'f7ec     0x2dc  packet-validate.o [21]
      .text               ro code     0x2'fac8      0x58  form-and-join-node-adapter.o [26]
      .text               ro code     0x2'fb20       0xa  form-and-join-afv2.o [26]
      .text               ro code     0x2'fb2a       0x2  startup_efr32mg21.o [14]
      .text               ro code     0x2'fb2c      0x18  rfhal_module.o [17]
      .text               ro code     0x2'fb44    0x1400  rail_rf_hal.o [17]
      .text               ro code     0x3'0f44      0x18  rail_assert.o [17]
      .text               ro code     0x3'0f5c      0xc4  pa_conversions_efr32.o [17]
      .text               ro code     0x3'1020     0x22c  store-forward.o [27]
      .text               ro code     0x3'124c     0x5ca  crypto.o [27]
      .text               ro code     0x3'1816       0x2  startup_efr32mg21.o [14]
      .text               ro code     0x3'1818     0x278  jit.o [27]
      .text               ro code     0x3'1a90     0x7c6  route-discovery.o [27]
      .text               ro code     0x3'2256       0x2  led.o [26]
      .text               ro code     0x3'2258     0x338  mac-header.o [27]
      .text               ro code     0x3'2590     0x984  zll-interpan.o [29]
      .text               ro code     0x3'2f14     0x154  route-error.o [27]
      .text               ro code     0x3'3068      0xd6  zll-tokens.o [29]
      .text               ro code     0x3'313e       0xa  xsprout.o [11]
      .text               ro code     0x3'3148     0x184  zll-security.o [29]
      .text               ro code     0x3'32cc       0x4  ember-duty-cycle-stub.o [27]
      .text               ro code     0x3'32d0     0x10c  symbol-timer.o [27]
      .text               ro code     0x3'33dc      0x22  I64Shl.o [22]
      .text               ro code     0x3'33fe      0x1a  xsnprout.o [11]
      .text               ro code     0x3'3418      0x72  security-config-mfg-3xx.o [23]
      .text               ro code     0x3'348a      0x12  aps-keys-full-stub.o [24]
      .text               ro code     0x3'349c     0x4e0  aps-keys-transient.o [23]
      .text               ro code     0x3'397c      0x62  hmac.o [23]
      .text               ro code     0x3'39de      0x3a  zero_init3.o [22]
      .text               ro code     0x3'3a18      0x6c  install-code-tokens.o [15]
      .text               ro code     0x3'3a84      0x60  aes.o [27]
      .text               ro code     0x3'3ae4       0x2  callback-stub.o [26]
      .text               ro code     0x3'3ae8      0x50  print.o [26]
      .text               ro code     0x3'3b38      0x5c  service-discovery-soc.o [26]
      .text               ro code     0x3'3b94      0x1c  zigbee-device-common.o [26]
      .text               ro code     0x3'3bb0       0xc  eeprom-afv2.o [26]
      .text               ro code     0x3'3bbc       0xc  XXexit.o [22]
      .text               ro code     0x3'3bc8      0x1c  em_rmu.o [26]
      .text               ro code     0x3'3be4       0x4  callback-stub.o [26]
      .text               ro code     0x3'3be8       0x4  callback-stub.o [26]
      .text               ro code     0x3'3bec       0xc  zigbee_sdk_core.o [26]
      .text               ro code     0x3'3bf8       0x2  zigbee_sdk_core.o [26]
      .text               ro code     0x3'3bfc      0x28  hal_uart_api.o [26]
      .text               ro code     0x3'3c24       0xc  zigbee_sdk_core.o [26]
      .text               ro code     0x3'3c30       0x2  callback-stub.o [26]
      .text               ro code     0x3'3c32       0x4  callback-stub.o [26]
      .text               ro code     0x3'3c36       0x2  callback-stub.o [26]
      .text               ro code     0x3'3c38       0x2  callback-stub.o [26]
      .text               ro code     0x3'3c3a       0x2  callback-stub.o [26]
      .text               ro code     0x3'3c3c       0x2  callback-stub.o [26]
      .text               ro code     0x3'3c40      0x16  strchr.o [22]
      .text               ro code     0x3'3c58      0x40  xfail_s.o [11]
      .text               ro code     0x3'3c98      0x58  memchr.o [22]
      .text               ro code     0x3'3cf0     0xa5c  zigbee-device.o [27]
      .text               ro code     0x3'474c       0x8  end-device-bind-stub.o [12]
      .text               ro code     0x3'4754       0x2  I64DivZer.o [22]
      .text               ro code     0x3'4756       0x4  nvm3_lock.o [26]
      .text               ro code     0x3'475a       0x8  em_core.o [26]
      .text               ro code     0x3'4762       0x8  em_core.o [26]
      .text               ro code     0x3'476c      0x2c  em_msc.o [26]
      .text               ro code     0x3'4798       0x6  rail_rssi.o [17]
      .text               ro code     0x3'47a0      0x68  rfhal_ircal.o [17]
      .text               ro code     0x3'4808      0xac  pa_conversions_efr32.o [17]
      .text               ro code     0x3'48b4     0x1e1  rail_ieee802154_rf_hal.o [17]
      .text               ro code     0x3'4a98      0x7c  btl_interface.o [26]
      .text               ro code     0x3'4b14      0x44  micro-internal.o [14]
      .text               ro code     0x3'4b58      0x16  callback-stub.o [26]
      .text               ro code     0x3'4b6e       0x4  callback-stub.o [26]
      .text               ro code     0x3'4b72     0x14e  aes-mmo.o [23]
      .text               ro code     0x3'4cc0       0x2  callback-stub.o [26]
      .text               ro code     0x3'4cc4     0xd9c  generic_phy.o [17]
      .text               ro code     0x3'5a60     0x4dc  rfhal_radio.o [17]
      .text               ro code     0x3'5f3c     0x2e0  rfhal_timings.o [17]
      .text               ro code     0x3'621c     0x760  rfhal_pa.o [17]
      .text               ro code     0x3'697c     0x624  rfhal_bufc.o [17]
      .text               ro code     0x3'6fa0     0x536  rfhal_protimer.o [17]
      .text               ro code     0x3'74d8      0x2c  rfhal_tempcal.o [17]
      .text               ro code     0x3'7504     0x29c  rfhal_synth.o [17]
      .text               ro code     0x3'77a0     0x120  rfhal_rand.o [17]
      .text               ro code     0x3'78c0      0x84  rfhal_pti.o [17]
      .text               ro code     0x3'7944       0x4  rail_timer.o [17]
      .text               ro code     0x3'7948     0x100  radioaes_aes.o [27]
      .text               ro code     0x3'7a48     0x1c4  zdo-binding-table.o [2]
      .text               ro code     0x3'7c0c      0x40  rfhal_antenna.o [17]
      .text               ro code     0x3'7c4c      0x44  seq_globals.o [17]
      .text               ro code     0x3'7c90      0x12  rail_ble_rf_hal.o [17]
      .text               ro code     0x3'7ca4       0x6  ABImemclr.o [22]
      .text               ro code     0x3'7cac      0x9e  radioaes.o [27]
      .text               ro code     0x3'7d4c       0x4  on-off.o [26]
      .text               ro code     0x3'7d50       0x2  callback-stub.o [26]
      Veneer              ro code     0x3'7d54       0x8  - Linker created -
      .text               ro code     0x3'7d5c     0x10c  nvm3_hal_flash.o [26]
      .text               ro code     0x3'7e68      0x1c  rfhal_rtccsync.o [17]
      .text               ro code     0x3'7e84      0x22  fpinit_M.o [18]
      .text               ro code     0x3'7ea8      0x1e  cmain.o [22]
      .text               ro code     0x3'7ec6       0x4  low_level_init.o [11]
      .text               ro code     0x3'7ecc      0x28  data_init.o [22]
      .text               ro code     0x3'7ef4       0x4  exit.o [11]
      .text               ro code     0x3'7ef8       0xa  cexit.o [22]
      .text               ro code     0x3'7f02       0xe  startup_efr32mg21.o [14]
      .text               ro code     0x3'7f10       0xc  cstartup_M.o [22]
      .text               ro code     0x3'7f1c       0x4  radio_config_em3xxx_2.4GHz.o [27]
      .text               ro code     0x3'7f20      0x78  lz77_init_single.o [22]
    .rodata               const       0x3'7f98      0x14  app_common.o [1]
    .rodata               const       0x3'7fac      0x20  app_common.o [1]
    .rodata               const       0x3'7fcc      0x20  app_common.o [1]
    .rodata               const       0x3'7fec      0x2c  app_common.o [1]
    .rodata               const       0x3'8018       0x8  app_common.o [1]
    .rodata               const       0x3'8020      0x10  app_common.o [1]
    .rodata               const       0x3'8030       0x8  app_common.o [1]
    .rodata               const       0x3'8038       0x8  app_common.o [1]
    .rodata               const       0x3'8040      0x14  app_common.o [1]
    .rodata               const       0x3'8054      0x1c  app_common.o [1]
    .rodata               const       0x3'8070       0x8  app_common.o [1]
    .rodata               const       0x3'8078      0x18  config.o [1]
    .rodata               const       0x3'8090       0x8  config.o [1]
    .rodata               const       0x3'8098       0xc  config.o [1]
    .rodata               const       0x3'80a4       0xc  config.o [1]
    .rodata               const       0x3'80b0      0x48  device_register.o [1]
    .rodata               const       0x3'80f8      0x30  device_register.o [1]
    .rodata               const       0x3'8128      0x18  device_register.o [1]
    .rodata               const       0x3'8140      0x14  device_register.o [1]
    .rodata               const       0x3'8154      0x24  device_register.o [1]
    .rodata               const       0x3'8178       0x8  device_register.o [1]
    .rodata               const       0x3'8180      0x1c  ias_zone_cluster.o [1]
    .rodata               const       0x3'819c      0x20  ias_zone_cluster.o [1]
    .rodata               const       0x3'81bc      0x20  ias_zone_cluster.o [1]
    .rodata               const       0x3'81dc      0x2c  simple_contact_sensor_callback.o [1]
    .rodata               const       0x3'8208      0x18  simple_contact_sensor_callback.o [1]
    .rodata               const       0x3'8220      0x14  simple_contact_sensor_callback.o [1]
    .rodata               const       0x3'8234      0x14  simple_contact_sensor_callback.o [1]
    .rodata               const       0x3'8248      0x10  simple_contact_sensor_callback.o [1]
    .rodata               const       0x3'8258       0xc  simple_contact_sensor_callback.o [1]
    .rodata               const       0x3'8264      0x10  simple_contact_sensor_callback.o [1]
    .rodata               const       0x3'8274      0x14  simple_contact_sensor_callback.o [1]
    .rodata               const       0x3'8288      0x14  simple_contact_sensor_callback.o [1]
    .rodata               const       0x3'829c      0x2c  hal_battery.o [26]
    .rodata               const       0x3'82c8      0xb4  create_zigbee_dev.o [26]
    .rodata               const       0x3'837c      0x30  create_zigbee_dev.o [26]
    .rodata               const       0x3'83ac       0xc  create_zigbee_dev.o [26]
    .rodata               const       0x3'83b8      0x2c  mf_test.o [26]
    .rodata               const       0x3'83e4       0x8  silicon_lab_modify.o [26]
    .rodata               const       0x3'83ec      0x24  attribute-storage.o [26]
    .rodata               const       0x3'8410       0x8  attribute-storage.o [26]
    .rodata               const       0x3'8418       0x4  attribute-storage.o [26]
    .rodata               const       0x3'841c       0x4  attribute-storage.o [26]
    .rodata               const       0x3'8420       0x4  attribute-storage.o [26]
    .rodata               const       0x3'8424       0x4  attribute-storage.o [26]
    .rodata               const       0x3'8428       0x8  attribute-storage.o [26]
    .rodata               const       0x3'8430       0x1  binding-table.o [2]
    .rodata               const       0x3'8432       0x2  mfg-token.o [26]
    .rodata               const       0x3'8434       0x1  zll-api.o [29]
    .rodata               const       0x3'8436       0x2  mfg-token.o [26]
    .rodata               const       0x3'8438      0x24  ember-printf.o [26]
    .rodata               const       0x3'845c       0xc  zigbee_dev_template.o [26]
    .rodata               const       0x3'8468      0x10  af-main-common.o [26]
    .rodata               const       0x3'8478      0x30  attribute-size.o [26]
    .rodata               const       0x3'84a8      0x14  reporting-default-configuration.o [26]
    .rodata               const       0x3'84bc       0x8  micro.o [26]
    .rodata               const       0x3'84c4       0xc  ota-common.o [26]
    .rodata               const       0x3'84d0       0x1  trust-center-util.o [23]
    .rodata               const       0x3'84d2       0x2  mfg-token.o [26]
    .rodata               const       0x3'84d4       0x1  route-table.o [27]
    .rodata               const       0x3'84d6       0x2  mfg-token.o [26]
    .rodata               const       0x3'84d8       0xc  zll-interpan.o [29]
    .rodata               const       0x3'84e4     0x190  token-def.o [26]
    .rodata               const       0x3'8674      0x64  token-def.o [26]
    .rodata               const       0x3'86d8      0x64  token-def.o [26]
    .rodata               const       0x3'873c      0x64  token-def.o [26]
    .rodata               const       0x3'87a0      0x64  token-def.o [26]
    .rodata               const       0x3'8804       0x4  token-def.o [26]
    .rodata               const       0x3'8808      0x14  token-def.o [26]
    .rodata               const       0x3'881c       0x4  token-def.o [26]
    .rodata               const       0x3'8820       0x4  token-def.o [26]
    .rodata               const       0x3'8824      0x14  token-def.o [26]
    .rodata               const       0x3'8838      0x10  token-def.o [26]
    .rodata               const       0x3'8848      0x1c  token-def.o [26]
    .rodata               const       0x3'8864       0x8  token-def.o [26]
    .rodata               const       0x3'886c       0xc  token-def.o [26]
    .rodata               const       0x3'8878      0x18  token-def.o [26]
    .rodata               const       0x3'8890      0x14  token-def.o [26]
    .rodata               const       0x3'88a4      0x10  token-def.o [26]
    .rodata               const       0x3'88b4      0x14  token-def.o [26]
    .rodata               const       0x3'88c8      0x1c  token-def.o [26]
    .rodata               const       0x3'88e4       0x8  token-def.o [26]
    .rodata               const       0x3'88ec       0xc  token-def.o [26]
    .rodata               const       0x3'88f8       0x4  token-def.o [26]
    .rodata               const       0x3'88fc      0x10  token-def.o [26]
    .rodata               const       0x3'890c       0xc  token-def.o [26]
    .rodata               const       0x3'8918      0x1c  token-def.o [26]
    .rodata               const       0x3'8934      0x5c  token-def.o [26]
    .rodata               const       0x3'8990      0x10  token-def.o [26]
    .rodata               const       0x3'89a0      0x28  token-def.o [26]
    .rodata               const       0x3'89c8      0x14  token-def.o [26]
    .rodata               const       0x3'89dc      0x34  token-def.o [26]
    .rodata               const       0x3'8a10      0x30  token-def.o [26]
    .rodata               const       0x3'8a40       0x4  token-def.o [26]
    .rodata               const       0x3'8a44      0xfc  token-def.o [26]
    .rodata               const       0x3'8b40      0xfc  token-def.o [26]
    .rodata               const       0x3'8c3c      0xfc  token-def.o [26]
    .rodata               const       0x3'8d38      0xfc  token-def.o [26]
    .rodata               const       0x3'8e34      0xfc  token-def.o [26]
    .rodata               const       0x3'8f30       0x4  token-def.o [26]
    .rodata               const       0x3'8f34       0x4  token-def.o [26]
    .rodata               const       0x3'8f38       0x4  token-def.o [26]
    .rodata               const       0x3'8f3c       0x4  token-def.o [26]
    .rodata               const       0x3'8f40       0x4  token-def.o [26]
    .rodata               const       0x3'8f44       0x4  token-def.o [26]
    .rodata               const       0x3'8f48       0x4  token-def.o [26]
    .rodata               const       0x3'8f4c       0x4  token-def.o [26]
    .rodata               const       0x3'8f50       0x4  token-def.o [26]
    .rodata               const       0x3'8f54       0x4  token-def.o [26]
    .rodata               const       0x3'8f58       0x4  token-def.o [26]
    .rodata               const       0x3'8f5c       0x4  token-def.o [26]
    .rodata               const       0x3'8f60       0x4  token-def.o [26]
    .rodata               const       0x3'8f64       0x4  token-def.o [26]
    .rodata               const       0x3'8f68       0x4  token-def.o [26]
    .rodata               const       0x3'8f6c       0x4  token-def.o [26]
    .rodata               const       0x3'8f70       0x8  token-def.o [26]
    .rodata               const       0x3'8f78       0x8  token-def.o [26]
    .rodata               const       0x3'8f80       0x8  token-def.o [26]
    .rodata               const       0x3'8f88       0x8  token-def.o [26]
    .rodata               const       0x3'8f90       0x8  token-def.o [26]
    .rodata               const       0x3'8f98       0x8  token-def.o [26]
    .rodata               const       0x3'8fa0       0x8  token-def.o [26]
    .rodata               const       0x3'8fa8       0x8  token-def.o [26]
    .rodata               const       0x3'8fb0      0x10  token-def.o [26]
    .rodata               const       0x3'8fc0      0x2c  token-def.o [26]
    .rodata               const       0x3'8fec      0x14  token-def.o [26]
    .rodata               const       0x3'9000     0x190  token-def.o [26]
    .rodata               const       0x3'9190      0xb4  uECC.o [26]
    .rodata               const       0x3'9244      0x24  phy-config-MHz.o [27]
    .rodata               const       0x3'9268      0x20  pa_curves_efr32.o [17]
    .rodata               const       0x3'9288      0xcc  pa_curves_efr32.o [17]
    .rodata               const       0x3'9354      0x1c  nvm3_hal_flash.o [26]
    .rodata               const       0x3'9370       0x4  nvm3_lock.o [26]
    .rodata               const       0x3'9374      0x40  bootloader-interface.o [26]
    .rodata               const       0x3'93b4       0xc  rail_ieee802154_rf_hal.o [17]
    .rodata               const       0x3'93c0      0x5c  radio_config_em3xxx_2.4GHz.o [27]
    .rodata               const       0x3'941c      0x18  rail_ble_rf_hal.o [17]
    .rodata               const       0x3'9434     0x32c  ieee802154_efr32xg21_configurator_out.o [17]
    .rodata               const       0x3'9760    0x1500  generic_efr32xg21_seq.o [17]
    .rodata               const       0x3'ac60       0x2  mfg-token.o [26]
    .rodata               const       0x3'ac62       0x2  mfg-token.o [26]
    .rodata               const       0x3'ac64       0x2  mfg-token.o [26]
    .rodata               const       0x3'ac66       0x2  token-def.o [26]
    .rodata               const       0x3'ac68       0x2  token-def.o [26]
    .rodata               const       0x3'ac6a       0x2  token-def.o [26]
    .rodata               const       0x3'ac6c       0x2  token-def.o [26]
    .rodata               const       0x3'ac6e       0x2  token-def.o [26]
    .rodata               const       0x3'ac70       0x2  token-def.o [26]
    .rodata               const       0x3'ac72       0x2  token-def.o [26]
    .rodata               const       0x3'ac74       0x2  token-def.o [26]
    .rodata               const       0x3'ac76       0x2  token-def.o [26]
    .rodata               const       0x3'ac78       0x2  token-def.o [26]
    .rodata               const       0x3'ac7a       0x2  token-def.o [26]
    .rodata               const       0x3'ac7c       0x2  token-def.o [26]
    .rodata               const       0x3'ac7e       0x2  token-def.o [26]
    .rodata               const       0x3'ac80       0x2  token-def.o [26]
    .rodata               const       0x3'ac82       0x2  token-def.o [26]
    .rodata               const       0x3'ac84       0x2  token-def.o [26]
    .rodata               const       0x3'ac86       0x2  token-def.o [26]
    .rodata               const       0x3'ac88       0x2  token-def.o [26]
    .rodata               const       0x3'ac8a       0x2  token-def.o [26]
    .rodata               const       0x3'ac8c       0x2  token-def.o [26]
    .rodata               const       0x3'ac8e       0x1  ember-multi-network-stub.o [20]
    .rodata               const       0x3'ac8f       0x1  ember-configuration.o [26]
    .rodata               const       0x3'ac90       0x1  enhanced-beacon-request-stub.o [28]
    .rodata               const       0x3'ac91       0x1  cbke-crypto-engine-stub.o [8]
    .rodata               const       0x3'ac92       0x1  cbke-crypto-engine-163k1-stub.o [3]
    .rodata               const       0x3'ac93       0x1  cbke-crypto-engine-283k1-stub.o [4]
    .rodata               const       0x3'ac94       0x1  end-device-bind-stub.o [12]
    .rodata               const       0x3'ac95       0x1  ember-library.o [27]
    .rodata               const       0x3'ac96       0x1  token-def.o [26]
    .rodata               const       0x3'ac97       0x1  token-def.o [26]
    .rodata               const       0x3'ac98       0x1  token-def.o [26]
    .rodata               const       0x3'ac99       0x1  token-def.o [26]
    .rodata               const       0x3'ac9a       0x1  token-def.o [26]
    .rodata               const       0x3'ac9b       0x1  token-def.o [26]
    .rodata               const       0x3'ac9c       0x1  token-def.o [26]
    .rodata               const       0x3'ac9d       0x1  token-def.o [26]
    .rodata               const       0x3'ac9e       0x1  token-def.o [26]
    .rodata               const       0x3'ac9f       0x1  token-def.o [26]
    .rodata               const       0x3'aca0       0x1  token-def.o [26]
    .rodata               const       0x3'aca1       0x1  token-def.o [26]
    .rodata               const       0x3'aca2       0x1  token-def.o [26]
    .rodata               const       0x3'aca3       0x1  token-def.o [26]
    .rodata               const       0x3'aca4       0x1  token-def.o [26]
    .rodata               const       0x3'aca5       0x1  token-def.o [26]
    .rodata               const       0x3'aca6       0x1  token-def.o [26]
    .rodata               const       0x3'aca7       0x1  token-def.o [26]
    .rodata               const       0x3'aca8       0x1  token-def.o [26]
    .rodata               const       0x3'aca9       0x1  token-def.o [26]
    .rodata               const       0x3'acaa       0x1  token-def.o [26]
    .rodata               const       0x3'acab       0x1  aps-keys-full-stub.o [24]
    .rodata               const       0x3'acac       0x1  cbke-crypto-engine-dsa-sign-stub.o [5]
    .rodata               const       0x3'acad       0x1  packet-validate.o [21]
    .rodata               const       0x3'acae       0x1  install-code-tokens.o [15]
    .rodata               const       0x3'acaf       0x1  cbke-crypto-engine-dsa-verify-283k1-stub.o [6]
    .rodata               const       0x3'acb0       0x1  cbke-crypto-engine-dsa-verify-stub.o [7]
    .rodata               const       0x3'acb1       0x1  nvm3_lock.o [26]
    .rodata               const       0x3'acb2       0x0  zero_init3.o [22]
    .rodata               const       0x3'acb2       0x0  lz77_init_single.o [22]
    .data_init                        0x3'acb2     0x4b6  <Block>
      Initializer bytes   const       0x3'acb2     0x4b6  <for rw section .data-1>
    .iar.init_table       const       0x3'b168      0x38  - Linker created -
                                    - 0x3'b1a0  0x3'6fa0

"NVM&SIMEE&LOCKBITS":                             0xa000
  SIMEE                               0xb'6000    0x8000  <Block>
    SIMEE                 uninit      0xb'6000    0x8000  nvm3_default.o [26]
  LOCKBITS_IN_MAINFLASH   uninit      0xb'e000    0x2000  mfg-token.o [26]
                                    - 0xc'0000    0xa000

"ResetHeap":                                      0x3a7c
  RESETHEAP                        0x2000'0000    0x3a7c  <Block>
    RESETINFO             uninit   0x2000'0000      0x9c  cstartup-common.o [26]
    ALIGN_EMHEAP                   0x2000'00a0    0x39dc  <Block>
      EMHEAP                       0x2000'00a0    0x39dc  <Block>
        EMHEAP            uninit   0x2000'00a0    0x39dc  ember-configuration.o [26]
                                 - 0x2000'3a7c    0x3a7c

"Guard":                                            0x24
  GUARD_REGION            zero     0x2000'3a80      0x20  cstartup-common.o [26]
                                 - 0x2000'3aa0      0x24

"APP rw":                                         0xaa98
  APPRW_block                      0x2000'5558    0xaa98  <Block>
    ALIGN_CSTACK                   0x2000'5558     0x960  <Block>
      CSTACK                       0x2000'5558     0x960  <Block>
        CSTACK            uninit   0x2000'5558     0x960  cstartup-common.o [26]
    rw section .textrw-1           0x2000'5eb8     0x160  <Init block>
      .textrw             inited   0x2000'5eb8     0x160  em_msc.o [26]
    rw section .data-1             0x2000'6018     0x883  <Init block>
      .data               inited   0x2000'6018       0x4  config.o [1]
      .data               inited   0x2000'601c       0x4  dev_gpio.o [26]
      .data               inited   0x2000'6020      0x3c  zigbee_sdk_core.o [26]
      .data               inited   0x2000'605c       0x4  time_sync.o [26]
      .data               inited   0x2000'6060       0x8  silicon_lab_modify.o [26]
      .data               inited   0x2000'6068      0x18  silicon_lab_modify.o [26]
      .data               inited   0x2000'6080     0x198  attribute-storage.o [26]
      .data               inited   0x2000'6218      0xa0  attribute-storage.o [26]
      .data               inited   0x2000'62b8       0x8  network-steering.o [26]
      .data               inited   0x2000'62c0       0x4  association.o [27]
      .data               inited   0x2000'62c4      0x1f  association.o [27]
      .data               inited   0x2000'62e4       0x8  zigbee-stack.o [27]
      .data               inited   0x2000'62ec       0x4  zigbee_sdk_end_device_handle.o [26]
      .data               inited   0x2000'62f0       0x8  system_efr32mg21.o [14]
      .data               inited   0x2000'62f8       0x4  system_efr32mg21.o [14]
      .data               inited   0x2000'62fc       0x4  system_efr32mg21.o [14]
      .data               inited   0x2000'6300      0x28  ecc_use.o [26]
      .data               inited   0x2000'6328       0x4  update-tc-link-key.o [26]
      .data               inited   0x2000'632c       0x4  message.o [26]
      .data               inited   0x2000'6330      0x1a  af-event.o [26]
      .data               inited   0x2000'634c     0x220  af-event.o [26]
      .data               inited   0x2000'656c       0x4  ota-storage-eeprom.o [26]
      .data               inited   0x2000'6570       0x8  ota-storage-eeprom.o [26]
      .data               inited   0x2000'6578       0x4  ota-storage-eeprom.o [26]
      .data               inited   0x2000'657c       0x4  ota-storage-eeprom.o [26]
      .data               inited   0x2000'6580     0x180  phy.o [27]
      .data               inited   0x2000'6700       0x4  phy.o [27]
      .data               inited   0x2000'6704       0x4  micro.o [26]
      .data               inited   0x2000'6708       0x4  ember-configuration.o [26]
      .data               inited   0x2000'670c       0x4  ember-configuration.o [26]
      .data               inited   0x2000'6710       0x4  ember-configuration.o [26]
      .data               inited   0x2000'6714       0x4  ember-configuration.o [26]
      .data               inited   0x2000'6718       0x4  ember-configuration.o [26]
      .data               inited   0x2000'671c       0x4  ember-configuration.o [26]
      .data               inited   0x2000'6720       0x4  ember-configuration.o [26]
      .data               inited   0x2000'6724       0x4  ember-configuration.o [26]
      .data               inited   0x2000'6728       0x4  ember-configuration.o [26]
      .data               inited   0x2000'672c       0x4  ember-configuration.o [26]
      .data               inited   0x2000'6730       0x4  ember-configuration.o [26]
      .data               inited   0x2000'6734       0x4  ember-configuration.o [26]
      .data               inited   0x2000'6738       0x4  ember-configuration.o [26]
      .data               inited   0x2000'673c       0x4  ember-configuration.o [26]
      .data               inited   0x2000'6740       0x4  ember-configuration.o [26]
      .data               inited   0x2000'6744       0x4  ember-configuration.o [26]
      .data               inited   0x2000'6748       0x4  ember-configuration.o [26]
      .data               inited   0x2000'674c       0x4  ember-configuration.o [26]
      .data               inited   0x2000'6750       0x4  ember-configuration.o [26]
      .data               inited   0x2000'6754       0x4  ember-configuration.o [26]
      .data               inited   0x2000'6758       0x4  ember-configuration.o [26]
      .data               inited   0x2000'675c       0x4  ember-configuration.o [26]
      .data               inited   0x2000'6760       0x4  ember-configuration.o [26]
      .data               inited   0x2000'6764       0x4  ember-configuration.o [26]
      .data               inited   0x2000'6768       0x4  ember-configuration.o [26]
      .data               inited   0x2000'676c       0x4  ember-configuration.o [26]
      .data               inited   0x2000'6770       0xc  application-support.o [27]
      .data               inited   0x2000'677c       0x4  ota-storage-eeprom-page-erase.o [26]
      .data               inited   0x2000'6780      0x10  rail_rf.o [17]
      .data               inited   0x2000'6790      0x10  rtcdriver.o [26]
      .data               inited   0x2000'67a0       0x4  nvm3_default.o [26]
      .data               inited   0x2000'67a4      0x1c  nvm3_default.o [26]
      .data               inited   0x2000'67c0       0x4  nvm3_default.o [26]
      .data               inited   0x2000'67c4       0x8  rail_assert.o [17]
      .data               inited   0x2000'67cc      0x24  rail_rf_hal.o [17]
      .data               inited   0x2000'67f0       0x8  rail_rf_hal.o [17]
      .data               inited   0x2000'67f8      0x20  rfhal_pa.o [17]
      .data               inited   0x2000'6818       0x4  ieee802154_efr32xg21_configurator_out.o [17]
      .data               inited   0x2000'681c       0x4  time_sync.o [26]
      .data               inited   0x2000'6820       0x2  attribute-storage.o [26]
      .data               inited   0x2000'6822       0x4  ota-client.o [26]
      .data               inited   0x2000'6826       0x4  zll-api.o [29]
      .data               inited   0x2000'682a       0x2  leave.o [27]
      .data               inited   0x2000'682c       0x2  zigbee_sdk_end_device_handle.o [26]
      .data               inited   0x2000'682e       0x4  random.o [26]
      .data               inited   0x2000'6832       0x8  zigbee-device.o [27]
      .data               inited   0x2000'683a       0x2  phy.o [27]
      .data               inited   0x2000'683c       0x2  ember-configuration.o [26]
      .data               inited   0x2000'683e       0x2  ember-configuration.o [26]
      .data               inited   0x2000'6840       0x2  ember-configuration.o [26]
      .data               inited   0x2000'6842       0x2  ember-configuration.o [26]
      .data               inited   0x2000'6844       0x2  aps-security.o [23]
      .data               inited   0x2000'6846       0x4  management.o [27]
      .data               inited   0x2000'684a       0x2  lower-mac-efr32.o [27]
      .data               inited   0x2000'684c       0x2  mac-header.o [27]
      .data               inited   0x2000'684e       0x1  app_common.o [1]
      .data               inited   0x2000'684f       0x1  config.o [1]
      .data               inited   0x2000'6850       0x1  network_manager.o [26]
      .data               inited   0x2000'6851       0x1  zigbee_sdk_core.o [26]
      .data               inited   0x2000'6852       0x1  silicon_lab_modify.o [26]
      .data               inited   0x2000'6853       0x1  packet-buffer.o [27]
      .data               inited   0x2000'6854       0x1  neighbor.o [27]
      .data               inited   0x2000'6855       0x1  neighbor.o [27]
      .data               inited   0x2000'6856       0x1  zll-api.o [29]
      .data               inited   0x2000'6857       0x1  zll-api.o [29]
      .data               inited   0x2000'6858       0x1  util.o [26]
      .data               inited   0x2000'6859       0x1  util.o [26]
      .data               inited   0x2000'685a       0x1  util.o [26]
      .data               inited   0x2000'685b       0x1  time-server.o [26]
      .data               inited   0x2000'685c       0x1  ember-multi-network-stub.o [20]
      .data               inited   0x2000'685d       0x1  service-discovery-common.o [26]
      .data               inited   0x2000'685e       0x1  ember-configuration.o [26]
      .data               inited   0x2000'685f       0x1  ember-configuration.o [26]
      .data               inited   0x2000'6860       0x1  ember-configuration.o [26]
      .data               inited   0x2000'6861       0x1  ember-configuration.o [26]
      .data               inited   0x2000'6862       0x1  ember-configuration.o [26]
      .data               inited   0x2000'6863       0x1  ember-configuration.o [26]
      .data               inited   0x2000'6864       0x1  ember-configuration.o [26]
      .data               inited   0x2000'6865       0x1  ember-configuration.o [26]
      .data               inited   0x2000'6866       0x1  ember-configuration.o [26]
      .data               inited   0x2000'6867       0x1  ember-configuration.o [26]
      .data               inited   0x2000'6868       0x1  ember-configuration.o [26]
      .data               inited   0x2000'6869       0x1  ember-configuration.o [26]
      .data               inited   0x2000'686a       0x1  ember-configuration.o [26]
      .data               inited   0x2000'686b       0x1  ember-configuration.o [26]
      .data               inited   0x2000'686c       0x1  ember-configuration.o [26]
      .data               inited   0x2000'686d       0x1  ember-configuration.o [26]
      .data               inited   0x2000'686e       0x1  ember-configuration.o [26]
      .data               inited   0x2000'686f       0x1  ember-configuration.o [26]
      .data               inited   0x2000'6870       0x1  ember-configuration.o [26]
      .data               inited   0x2000'6871       0x1  ember-configuration.o [26]
      .data               inited   0x2000'6872       0x1  ember-configuration.o [26]
      .data               inited   0x2000'6873       0x1  ember-configuration.o [26]
      .data               inited   0x2000'6874       0x1  ember-configuration.o [26]
      .data               inited   0x2000'6875       0x1  ember-configuration.o [26]
      .data               inited   0x2000'6876       0x1  ember-configuration.o [26]
      .data               inited   0x2000'6877       0x1  ember-configuration.o [26]
      .data               inited   0x2000'6878       0x1  network-steering-soc.o [26]
      .data               inited   0x2000'6879       0x1  aps-keys.o [23]
      .data               inited   0x2000'687a       0x1  aps-security.o [23]
      .data               inited   0x2000'687b       0x1  aps-retry.o [27]
      .data               inited   0x2000'687c       0x3  scan.o [27]
      .data               inited   0x2000'687f       0x1  network.o [27]
      .data               inited   0x2000'6880       0x1  network.o [27]
      .data               inited   0x2000'6881       0x1  network.o [27]
      .data               inited   0x2000'6882       0x1  trust-center-util.o [23]
      .data               inited   0x2000'6883       0x1  random-id.o [27]
      .data               inited   0x2000'6884       0x2  mac-indirect.o [27]
      .data               inited   0x2000'6886       0x1  child-handling.o [27]
      .data               inited   0x2000'6887       0x1  zigbee-device-util.o [27]
      .data               inited   0x2000'6888       0x1  zigbee-device-util.o [27]
      .data               inited   0x2000'6889       0x3  zdo-channel.o [27]
      .data               inited   0x2000'688c       0x2  token-cache.o [27]
      .data               inited   0x2000'688e       0x1  broadcast.o [27]
      .data               inited   0x2000'688f       0x1  lower-mac-efr32.o [27]
      .data               inited   0x2000'6890       0x1  mac-dispatch.o [27]
      .data               inited   0x2000'6891       0x1  jit.o [27]
      .data               inited   0x2000'6892       0x1  aps-keys-transient.o [23]
      .data               inited   0x2000'6893       0x1  zll-interpan.o [29]
      .data               inited   0x2000'6894       0x1  eeprom.o [26]
      .data               inited   0x2000'6895       0x1  zigbee-device-common.o [26]
      .data               inited   0x2000'6896       0x1  bootloader-interface-app.o [26]
      .data               inited   0x2000'6897       0x1  form-and-join-node-adapter.o [26]
      .data               inited   0x2000'6898       0x1  packet-validate.o [21]
      .data               inited   0x2000'6899       0x1  route-discovery.o [27]
      .data               inited   0x2000'689a       0x1  rfhal_antenna.o [17]
    .bss                           0x2000'68a0    0x6f54  <Block>
      .bss                zero     0x2000'68a0     0x1e0  reporting.o [26]
      .bss                zero     0x2000'6a80      0x54  phy.o [27]
      .bss                zero     0x2000'6ad4      0x14  app_common.o [1]
      .bss                zero     0x2000'6ae8      0x10  mac-indirect.o [27]
      .bss                zero     0x2000'6af8      0xa0  rtcdriver.o [26]
      .bss                zero     0x2000'6b98      0x68  nvm3_default.o [26]
      .bss                zero     0x2000'6c00      0x90  rfhal_bufc.o [17]
      .bss                zero     0x2000'6c90      0x14  generic_phy.o [17]
      .bss                zero     0x2000'6ca4      0x10  app_common.o [1]
      .bss                zero     0x2000'6cb4      0x10  app_common.o [1]
      .bss                zero     0x2000'6cc4      0x1c  network_manager.o [26]
      .bss                zero     0x2000'6ce0       0xc  network_manager.o [26]
      .bss                zero     0x2000'6cec       0x4  network_manager.o [26]
      .bss                zero     0x2000'6cf0      0x1c  dev_gpio.o [26]
      .bss                zero     0x2000'6d0c      0xc0  dev_gpio.o [26]
      .bss                zero     0x2000'6dcc     0x200  dev_evt_pool.o [26]
      .bss                zero     0x2000'6fcc       0xc  dev_evt_pool.o [26]
      .bss                zero     0x2000'6fd8     0x198  dev_evt_pool.o [26]
      .bss                zero     0x2000'7170      0xcc  dev_evt_pool.o [26]
      .bss                zero     0x2000'723c       0x8  dev_evt_pool.o [26]
      .bss                zero     0x2000'7244       0x8  dev_evt_pool.o [26]
      .bss                zero     0x2000'724c      0x34  zigbee_sdk_core.o [26]
      .bss                zero     0x2000'7280       0x8  zigbee_sdk_core.o [26]
      .bss                zero     0x2000'7288      0x1c  zigbee_sdk_core.o [26]
      .bss                zero     0x2000'72a4      0x64  zigbee_sdk_core.o [26]
      .bss                zero     0x2000'7308      0x48  hal_battery.o [26]
      .bss                zero     0x2000'7350    0x1850  hal_uart_api.o [26]
      .bss                zero     0x2000'8ba0      0xa0  create_zigbee_dev.o [26]
      .bss                zero     0x2000'8c40      0x14  create_zigbee_dev.o [26]
      .bss                zero     0x2000'8c54    0x1804  create_zigbee_dev.o [26]
      .bss                zero     0x2000'a458     0x200  create_zigbee_dev.o [26]
      .bss                zero     0x2000'a658     0x204  mf_test.o [26]
      .bss                zero     0x2000'a85c       0x9  mf_test.o [26]
      .bss                zero     0x2000'a865       0x3  security-address-cache.o [26]
      .bss                zero     0x2000'a868      0xa8  mf_test.o [26]
      .bss                zero     0x2000'a910     0x200  mf_test.o [26]
      .bss                zero     0x2000'ab10     0x200  mf_test.o [26]
      .bss                zero     0x2000'ad10       0xc  time_sync.o [26]
      .bss                zero     0x2000'ad1c       0x8  silicon_lab_modify.o [26]
      .bss                zero     0x2000'ad24      0x38  silicon_lab_modify.o [26]
      .bss                zero     0x2000'ad5c       0xc  silicon_lab_modify.o [26]
      .bss                zero     0x2000'ad68       0x8  attribute-storage.o [26]
      .bss                zero     0x2000'ad70       0x4  attribute-storage.o [26]
      .bss                zero     0x2000'ad74       0x8  attribute-storage.o [26]
      .bss                zero     0x2000'ad7c       0x8  attribute-storage.o [26]
      .bss                zero     0x2000'ad84      0x24  ota-client.o [26]
      .bss                zero     0x2000'ada8      0x40  network-steering.o [26]
      .bss                zero     0x2000'ade8       0xc  association.o [27]
      .bss                zero     0x2000'adf4       0xc  association.o [27]
      .bss                zero     0x2000'ae00      0x14  association.o [27]
      .bss                zero     0x2000'ae14       0xc  association.o [27]
      .bss                zero     0x2000'ae20       0x8  neighbor.o [27]
      .bss                zero     0x2000'ae28      0x28  zll-api.o [29]
      .bss                zero     0x2000'ae50      0x18  zll-api.o [29]
      .bss                zero     0x2000'ae68       0xc  zll-api.o [29]
      .bss                zero     0x2000'ae74      0x2c  zll-api.o [29]
      .bss                zero     0x2000'aea0       0xc  leave.o [27]
      .bss                zero     0x2000'aeac       0x4  zigbee_sdk_end_device_handle.o [26]
      .bss                zero     0x2000'aeb0      0x20  zigbee_sdk_end_device_handle.o [26]
      .bss                zero     0x2000'aed0       0x8  system-timer.o [14]
      .bss                zero     0x2000'aed8       0x8  dev_common_utils.o [26]
      .bss                zero     0x2000'aee0       0xc  dev_common_utils.o [26]
      .bss                zero     0x2000'aeec      0x40  gpiointerrupt.o [26]
      .bss                zero     0x2000'af2c     0x800  ecc_use.o [26]
      .bss                zero     0x2000'b72c      0x44  ecc_use.o [26]
      .bss                zero     0x2000'b770      0x10  client-api.o [26]
      .bss                zero     0x2000'b780       0xc  util.o [26]
      .bss                zero     0x2000'b78c      0x20  util.o [26]
      .bss                zero     0x2000'b7ac      0x20  util.o [26]
      .bss                zero     0x2000'b7cc      0x24  tuya_sdk_callbacks.o [26]
      .bss                zero     0x2000'b7f0      0x14  update-tc-link-key.o [26]
      .bss                zero     0x2000'b804      0x30  hal_adc.o [26]
      .bss                zero     0x2000'b834       0x8  ember-multi-network-stub.o [20]
      .bss                zero     0x2000'b83c       0x8  ember-multi-network-stub.o [20]
      .bss                zero     0x2000'b844       0x8  ember-multi-network-stub.o [20]
      .bss                zero     0x2000'b84c       0x8  eui64.o [27]
      .bss                zero     0x2000'b854       0xc  zigbee-dispatch.o [27]
      .bss                zero     0x2000'b860      0x10  message.o [26]
      .bss                zero     0x2000'b870      0x54  message.o [26]
      .bss                zero     0x2000'b8c4       0x8  af-event.o [26]
      .bss                zero     0x2000'b8cc       0x8  af-event.o [26]
      .bss                zero     0x2000'b8d4       0x4  multi-network.o [26]
      .bss                zero     0x2000'b8d8     0x1e0  af-main-common.o [26]
      .bss                zero     0x2000'bab8       0x8  ota-storage-eeprom.o [26]
      .bss                zero     0x2000'bac0      0x7c  green-power-client.o [26]
      .bss                zero     0x2000'bb3c       0x8  reporting.o [26]
      .bss                zero     0x2000'bb44      0x60  service-discovery-common.o [26]
      .bss                zero     0x2000'bba4       0x4  identify.o [26]
      .bss                zero     0x2000'bba8      0x28  find-and-bind-initiator.o [26]
      .bss                zero     0x2000'bbd0      0x64  phy.o [27]
      .bss                zero     0x2000'bc34      0x8c  phy.o [27]
      .bss                zero     0x2000'bcc0       0x4  micro.o [26]
      .bss                zero     0x2000'bcc4      0x30  ember-configuration.o [26]
      .bss                zero     0x2000'bcf4       0xc  scan-dispatch.o [26]
      .bss                zero     0x2000'bd00     0x200  scan-dispatch.o [26]
      .bss                zero     0x2000'bf00      0x14  form-and-join.o [26]
      .bss                zero     0x2000'bf14      0x18  ota-storage-simple.o [26]
      .bss                zero     0x2000'bf2c       0xc  ota-storage-eeprom-page-erase.o [26]
      .bss                zero     0x2000'bf38       0x8  aps-keys.o [23]
      .bss                zero     0x2000'bf40      0x10  aps-security.o [23]
      .bss                zero     0x2000'bf50       0xe  aps-retry.o [27]
      .bss                zero     0x2000'bf5e       0x2  ias_zone_cluster.o [1]
      .bss                zero     0x2000'bf60      0x40  scan.o [27]
      .bss                zero     0x2000'bfa0       0x8  enhanced-beacon-request-stub.o [28]
      .bss                zero     0x2000'bfa8       0x4  network.o [27]
      .bss                zero     0x2000'bfac       0xc  network.o [27]
      .bss                zero     0x2000'bfb8       0x8  management.o [27]
      .bss                zero     0x2000'bfc0      0x10  retry.o [27]
      .bss                zero     0x2000'bfd0      0x38  upper-mac.o [27]
      .bss                zero     0x2000'c008       0x4  upper-mac.o [27]
      .bss                zero     0x2000'c00c       0x8  upper-mac.o [27]
      .bss                zero     0x2000'c014       0x8  upper-mac.o [27]
      .bss                zero     0x2000'c01c       0xa  mac-indirect.o [27]
      .bss                zero     0x2000'c026       0x6  silicon_lab_modify.o [26]
      .bss                zero     0x2000'c02c      0x10  child-handling.o [27]
      .bss                zero     0x2000'c03c       0x8  child-handling.o [27]
      .bss                zero     0x2000'c044       0x8  gp-stub.o [13]
      .bss                zero     0x2000'c04c       0x8  gp-stub.o [13]
      .bss                zero     0x2000'c054       0x8  gp-stub.o [13]
      .bss                zero     0x2000'c05c      0x14  zigbee-device-util.o [27]
      .bss                zero     0x2000'c070      0x10  zdo-channel.o [27]
      .bss                zero     0x2000'c080      0x11  unicast-table.o [27]
      .bss                zero     0x2000'c091       0x3  network.o [27]
      .bss                zero     0x2000'c094       0x8  neighbor-exchange.o [27]
      .bss                zero     0x2000'c09c       0xc  broadcast.o [27]
      .bss                zero     0x2000'c0a8      0x88  lower-mac-efr32.o [27]
      .bss                zero     0x2000'c130       0x8  lower-mac-efr32.o [27]
      .bss                zero     0x2000'c138       0x8  duty-cycle-stub.o [27]
      .bss                zero     0x2000'c140       0xc  jit.o [27]
      .bss                zero     0x2000'c14c      0x10  store-forward.o [27]
      .bss                zero     0x2000'c15c      0x10  aps-keys-transient.o [23]
      .bss                zero     0x2000'c16c       0x8  end-device-bind-stub.o [12]
      .bss                zero     0x2000'c174      0x18  zll-interpan.o [29]
      .bss                zero     0x2000'c18c       0xc  mac-header.o [27]
      .bss                zero     0x2000'c198      0x14  rtcdriver.o [26]
      .bss                zero     0x2000'c1ac       0xc  ustimer.o [26]
      .bss                zero     0x2000'c1b8       0x4  sleep-efm32.o [26]
      .bss                zero     0x2000'c1bc       0x4  sleep-efm32.o [26]
      .bss                zero     0x2000'c1c0     0x960  nvm3_default.o [26]
      .bss                zero     0x2000'cb20       0x4  nvm3.o [16]
      .bss                zero     0x2000'cb24      0x40  uECC.o [26]
      .bss                zero     0x2000'cb64      0x40  uECC.o [26]
      .bss                zero     0x2000'cba4      0x40  uECC.o [26]
      .bss                zero     0x2000'cbe4      0x40  uECC.o [26]
      .bss                zero     0x2000'cc24      0x80  uECC.o [26]
      .bss                zero     0x2000'cca4     0x1c0  uECC.o [26]
      .bss                zero     0x2000'ce64      0x54  counters-soc.o [26]
      .bss                zero     0x2000'ceb8      0x54  counters-soc.o [26]
      .bss                zero     0x2000'cf0c      0x24  counters-soc.o [26]
      .bss                zero     0x2000'cf30      0x84  counters-soc.o [26]
      .bss                zero     0x2000'cfb4      0x18  eeprom.o [26]
      .bss                zero     0x2000'cfcc       0x4  idle-sleep-soc.o [26]
      .bss                zero     0x2000'cfd0       0xa  cstartup-common.o [26]
      .bss                zero     0x2000'cfda       0xa  mfglib.o [19]
      .bss                zero     0x2000'cfe4       0x8  form-and-join-afv2.o [26]
      .bss                zero     0x2000'cfec      0x18  end-device-support.o [26]
      .bss                zero     0x2000'd004     0x184  bootloader-interface-app.o [26]
      .bss                zero     0x2000'd188      0x18  bootloader-interface-app.o [26]
      .bss                zero     0x2000'd1a0       0xc  rail_singleprotocol.o [17]
      .bss                zero     0x2000'd1ac     0x200  rail_data.o [17]
      .bss                zero     0x2000'd3ac      0x28  pa_conversions_efr32.o [17]
      .bss                zero     0x2000'd3d4      0x38  tempdrv.o [26]
      .bss                zero     0x2000'd40c      0x28  tempdrv.o [26]
      .bss                zero     0x2000'd434       0x4  aps-encryption.o [23]
      .bss                zero     0x2000'd438      0x10  aes.o [27]
      .bss                zero     0x2000'd448      0x14  rail_rf_hal.o [17]
      .bss                zero     0x2000'd45c       0x8  symbol-timer.o [27]
      .bss                zero     0x2000'd464       0x4  nvm3_lock.o [26]
      .bss                zero     0x2000'd468      0x2c  nvm3_lock.o [26]
      .bss                zero     0x2000'd494      0x2c  nvm3_lock.o [26]
      .bss                zero     0x2000'd4c0      0x2c  nvm3_lock.o [26]
      .bss                zero     0x2000'd4ec      0x2c  nvm3_lock.o [26]
      .bss                zero     0x2000'd518      0x10  rfhal_protimer.o [17]
      .bss                zero     0x2000'd528      0x10  rfhal_protimer.o [17]
      .bss                zero     0x2000'd538      0x18  rfhal_pti.o [17]
      .bss                zero     0x2000'd550      0x48  rfhal_radio.o [17]
      .bss                zero     0x2000'd598       0xc  rfhal_synth.o [17]
      .bss                zero     0x2000'd5a4       0x4  rfhal_timings.o [17]
      .bss                zero     0x2000'd5a8      0x18  dlmalloc.o [11]
      .bss                zero     0x2000'd5c0     0x1d8  dlmalloc.o [11]
      .bss                zero     0x2000'd798       0x4  xgetmemchunk.o [11]
      .bss                zero     0x2000'd79c       0x4  xfail_s.o [11]
      .bss                zero     0x2000'd7a0       0x2  message.o [26]
      .bss                zero     0x2000'd7a2       0x4  zigbee-device.o [27]
      .bss                zero     0x2000'd7a6       0x2  network.o [27]
      .bss                zero     0x2000'd7a8       0x4  route-table.o [27]
      .bss                zero     0x2000'd7ac       0x2  jit.o [27]
      .bss                zero     0x2000'd7ae       0x2  print.o [26]
      .bss                zero     0x2000'd7b0       0x2  rail_rf_hal.o [17]
      .bss                zero     0x2000'd7b2       0x1  network_manager.o [26]
      .bss                zero     0x2000'd7b3       0x4  hal_uart_api.o [26]
      .bss                zero     0x2000'd7b7       0x1  mf_test.o [26]
      .bss                zero     0x2000'd7b8       0x1  silicon_lab_modify.o [26]
      .bss                zero     0x2000'd7b9       0x1  attribute-storage.o [26]
      .bss                zero     0x2000'd7ba       0x1  scenes.o [26]
      .bss                zero     0x2000'd7bb       0x1  association.o [27]
      .bss                zero     0x2000'd7bc       0x1  neighbor.o [27]
      .bss                zero     0x2000'd7bd       0x1  neighbor.o [27]
      .bss                zero     0x2000'd7be       0x1  zigbee-stack.o [27]
      .bss                zero     0x2000'd7bf       0x1  token.o [26]
      .bss                zero     0x2000'd7c0       0x2  event-control.o [27]
      .bss                zero     0x2000'd7c2       0x2  idle-sleep.o [26]
      .bss                zero     0x2000'd7c4       0x1  idle-sleep.o [26]
      .bss                zero     0x2000'd7c5       0x1  util.o [26]
      .bss                zero     0x2000'd7c6       0x2  util.o [26]
      .bss                zero     0x2000'd7c8       0x1  zigbee-dispatch.o [27]
      .bss                zero     0x2000'd7c9       0x1  af-event.o [26]
      .bss                zero     0x2000'd7ca       0x1  crypto-state.o [26]
      .bss                zero     0x2000'd7cb       0x1  process-global-message.o [26]
      .bss                zero     0x2000'd7cc       0x1  service-discovery-common.o [26]
      .bss                zero     0x2000'd7cd       0x1  ember-configuration.o [26]
      .bss                zero     0x2000'd7ce       0x1  ember-configuration.o [26]
      .bss                zero     0x2000'd7cf       0x1  ember-configuration.o [26]
      .bss                zero     0x2000'd7d0       0x1  ember-configuration.o [26]
      .bss                zero     0x2000'd7d1       0x1  ember-configuration.o [26]
      .bss                zero     0x2000'd7d2       0x1  ember-configuration.o [26]
      .bss                zero     0x2000'd7d3       0x1  application-support.o [27]
      .bss                zero     0x2000'd7d4       0x1  application-support.o [27]
      .bss                zero     0x2000'd7d5       0x1  child.o [27]
      .bss                zero     0x2000'd7d6       0x1  ota-storage-eeprom-page-erase.o [26]
      .bss                zero     0x2000'd7d7       0x2  aps-keys.o [23]
      .bss                zero     0x2000'd7d9       0x1  network.o [27]
      .bss                zero     0x2000'd7da       0x1  management.o [27]
      .bss                zero     0x2000'd7db       0x1  random-id.o [27]
      .bss                zero     0x2000'd7dc       0x1  random-id.o [27]
      .bss                zero     0x2000'd7dd       0x1  command.o [27]
      .bss                zero     0x2000'd7de       0x1  upper-mac.o [27]
      .bss                zero     0x2000'd7df       0x1  child-handling.o [27]
      .bss                zero     0x2000'd7e0       0x1  lower-mac-efr32.o [27]
      .bss                zero     0x2000'd7e1       0x1  duty-cycle-stub.o [27]
      .bss                zero     0x2000'd7e2       0x1  aps-keys-transient.o [23]
      .bss                zero     0x2000'd7e3       0x1  zll-interpan.o [29]
      .bss                zero     0x2000'd7e4       0x2  zll-interpan.o [29]
      .bss                zero     0x2000'd7e6       0x1  mac-header.o [27]
      .bss                zero     0x2000'd7e7       0x1  af-trust-center.o [26]
      .bss                zero     0x2000'd7e8       0x1  eeprom.o [26]
      .bss                zero     0x2000'd7e9       0x1  eeprom.o [26]
      .bss                zero     0x2000'd7ea       0x1  zigbee-device-common.o [26]
      .bss                zero     0x2000'd7eb       0x1  tempdrv.o [26]
      .bss                zero     0x2000'd7ec       0x1  route-discovery.o [27]
      .bss                zero     0x2000'd7ed       0x1  btl_interface.o [26]
      .bss                zero     0x2000'd7ee       0x1  generic_phy.o [17]
      .bss                zero     0x2000'd7ef       0x1  rfhal_protimer.o [17]
    HEAP                           0x2000'd7f0    0x2800  <Block>
      HEAP                uninit   0x2000'd7f0    0x2800  <Block tail>
                                 - 0x2000'fff0    0xaa98

Unused ranges:

         From           To    Size
         ----           --    ----
  0x2000'3aa0  0x2000'5557  0x1ab8


*******************************************************************************
*** INIT TABLE
***

          Address      Size
          -------      ----
Zero (__iar_zero_init3)
    2 destination ranges, total size 0x6f70:
          0x2000'3a80    0x20
          0x2000'68a0  0x6f50

Copy/lz77 (__iar_lz77_init_single3)
    1 source range, total size 0x14a (93% of destination):
               0x4334   0x14a
    1 destination range, total size 0x160:
          0x2000'5eb8   0x160

Copy/lz77 (__iar_lz77_init_single3)
    1 source range, total size 0x4b6 (55% of destination):
             0x3'acb2   0x4b6
    1 destination range, total size 0x883:
          0x2000'6018   0x883



*******************************************************************************
*** MODULE SUMMARY
***

    Module                                      ro code  rw code  ro data  rw data
    ------                                      -------  -------  -------  -------
command line/config:
    ------------------------------------------------------------------------------
    Total:

D:\tuyaOS\tuya-zigbee-sdk-mg21\app\simple_contact_sensor\EFR32MG21A020F768\build\obj: [1]
    app_common.o                                  1'016               224       53
    config.o                                         28                59        5
    device_register.o                                36               208
    ias_zone_cluster.o                            1'360                92        2
    simple_contact_sensor_callback.o                434               192
    ------------------------------------------------------------------------------
    Total:                                        2'874               775       60

binding-table-library.a: [2]
    binding-table.o                               1'232                 1
    zdo-binding-table.o                             452
    ------------------------------------------------------------------------------
    Total:                                        1'684                 1

cbke-163k1-stub-library.a: [3]
    cbke-crypto-engine-163k1-stub.o                   6                 1
    ------------------------------------------------------------------------------
    Total:                                            6                 1

cbke-283k1-stub-library.a: [4]
    cbke-crypto-engine-283k1-stub.o                   6                 1
    ------------------------------------------------------------------------------
    Total:                                            6                 1

cbke-library-dsa-sign-stub.a: [5]
    cbke-crypto-engine-dsa-sign-stub.o                4                 1
    ------------------------------------------------------------------------------
    Total:                                            4                 1

cbke-library-dsa-verify-283k1-stub.a: [6]
    cbke-crypto-engine-dsa-verify-283k1-stub.o                          1
    ------------------------------------------------------------------------------
    Total:                                                              1

cbke-library-dsa-verify-stub.a: [7]
    cbke-crypto-engine-dsa-verify-stub.o                                1
    ------------------------------------------------------------------------------
    Total:                                                              1

cbke-stub-library.a: [8]
    cbke-crypto-engine-stub.o                        14                 1
    ------------------------------------------------------------------------------
    Total:                                           14                 1

debug-basic-stub-library.a: [9]
    debug-platform-stub.o                             8
    debug-stub.o                                      6
    ------------------------------------------------------------------------------
    Total:                                           14

debug-extended-stub-library.a: [10]
    debug-extended-stub.o                             8
    ------------------------------------------------------------------------------
    Total:                                            8

dl7M_tln.a: [11]
    abort.o                                           6
    dlmalloc.o                                    5'276                        496
    exit.o                                            4
    heaptramp0.o                                      4
    low_level_init.o                                  4
    snprintf.o                                       68
    sprintf.o                                        64
    xfail_s.o                                        64                          4
    xgetmemchunk.o                                   44                          4
    xprintfsmall_nomb.o                           1'281
    xsnprout.o                                       26
    xsprout.o                                        10
    ------------------------------------------------------------------------------
    Total:                                        6'851                        504

end-device-bind-stub-library.a: [12]
    end-device-bind-stub.o                            8                 1        8
    ------------------------------------------------------------------------------
    Total:                                            8                 1        8

gp-stub-library.a: [13]
    gp-stub.o                                        22                         24
    ------------------------------------------------------------------------------
    Total:                                           22                         24

hal-library.a: [14]
    flash.o                                         104
    micro-common-internal.o                          88
    micro-internal.o                                 68
    startup_efr32mg21.o                             112               308
    system-timer.o                                  208                          8
    system_efr32mg21.o                              324                 9       16
    ------------------------------------------------------------------------------
    Total:                                          904               317       24

install-code-library.a: [15]
    install-code-tokens.o                           108                 1
    ------------------------------------------------------------------------------
    Total:                                          108                 1

libnvm3_CM33_iar.a: [16]
    nvm3.o                                        6'758                          4
    nvm3_cache.o                                    654
    nvm3_object.o                                   442
    nvm3_page.o                                     598
    nvm3_utils.o                                     62
    ------------------------------------------------------------------------------
    Total:                                        8'514                          4

librail_efr32xg21_iar_release.a: [17]
    generic_efr32xg21_seq.o                                         5'376
    generic_phy.o                                 3'484                         21
    ieee802154_efr32xg21_configurator_out.o                           814        4
    pa_conversions_efr32.o                          396                         40
    pa_curves_efr32.o                                                 236
    rail_assert.o                                    24                 4        8
    rail_autoack.o                                  176
    rail_ble_rf_hal.o                                18                24
    rail_calibration.o                              190
    rail_data.o                                     160                        512
    rail_ieee802154.o                               464
    rail_ieee802154_rf_hal.o                        481                12
    rail_pti.o                                        6
    rail_rf.o                                       864                 9       16
    rail_rf_hal.o                                 5'120                24       66
    rail_rssi.o                                       6
    rail_rx.o                                        38
    rail_singleprotocol.o                           304                         12
    rail_timer.o                                      4
    rail_tx.o                                       184
    rfhal_antenna.o                                  64                 1        1
    rfhal_bufc.o                                  1'572                        144
    rfhal_ircal.o                                   104
    rfhal_module.o                                   24
    rfhal_pa.o                                    1'888                18       32
    rfhal_protimer.o                              1'334                         33
    rfhal_pti.o                                     132                         24
    rfhal_radio.o                                 1'244                         72
    rfhal_rand.o                                    288
    rfhal_rtccsync.o                                 28
    rfhal_synth.o                                   668                         12
    rfhal_tempcal.o                                  44
    rfhal_timings.o                                 736                          4
    seq_globals.o                                    68
    ------------------------------------------------------------------------------
    Total:                                       20'113             6'518    1'001

m7M_tls.a: [18]
    fpinit_M.o                                       34
    ------------------------------------------------------------------------------
    Total:                                           34

mfglib-library.a: [19]
    mfglib.o                                        372                         10
    ------------------------------------------------------------------------------
    Total:                                          372                         10

multi-network-stub-library.a: [20]
    ember-multi-network-stub.o                      708                 1       25
    ------------------------------------------------------------------------------
    Total:                                          708                 1       25

packet-validate-library.a: [21]
    packet-validate.o                               732                 1        1
    ------------------------------------------------------------------------------
    Total:                                          732                 1        1

rt7M_tl.a: [22]
    ABImemclr.o                                       6
    ABImemclr4.o                                      6
    ABImemcpy_unaligned.o                           118
    ABImemset.o                                     102
    ABImemset48.o                                    58
    I64DivMod.o                                     560
    I64DivZer.o                                       2
    I64Shl.o                                         34
    XXexit.o                                         12
    cexit.o                                          10
    cmain.o                                          30
    cstartup_M.o                                     12
    data_init.o                                      40
    lz77_init_single.o                              120
    memchr.o                                         88
    memcmp_unaligned.o                               98
    memset.o                                         20
    strchr.o                                         22
    strcpy.o                                         24
    strlen.o                                         54
    zero_init3.o                                     58
    ------------------------------------------------------------------------------
    Total:                                        1'474

security-library-core.a: [23]
    aes-mmo.o                                       334
    aps-encryption.o                              1'276                          4
    aps-keys-transient.o                          1'248                         18
    aps-keys.o                                    1'712                         11
    aps-security.o                                3'512                 2       19
    hmac.o                                           98
    security-config-mfg-3xx.o                       114
    trust-center-util.o                           1'628                 1        1
    ------------------------------------------------------------------------------
    Total:                                        9'922                 3       53

security-library-link-keys-stub.a: [24]
    aps-keys-full-stub.o                             18                 1
    ------------------------------------------------------------------------------
    Total:                                           18                 1

sim-eeprom2-to-nvm3-upgrade-stub-library.a: [25]
    sim-eeprom2-to-nvm3-upgrade-stub.o                4
    ------------------------------------------------------------------------------
    Total:                                            4

tuya_sdk.a: [26]
    af-event.o                                      372               316      587
    af-main-common.o                              1'684                16      480
    af-main-soc.o                                 1'146
    af-security-common.o                              4
    af-trust-center.o                                96                          1
    afv2-bookkeeping.o                               70
    antenna-stub.o                                   12
    assert-crash-handlers.o                          72
    attribute-size.o                                 44                48
    attribute-storage.o                           1'702               384      599
    attribute-table.o                             1'170
    bootloader-interface-app.o                      684                        413
    bootloader-interface.o                                             64
    btl_interface.o                                 124                          1
    call-command-handler.o                        1'136
    callback-stub.o                                 214
    client-api.o                                  1'048                         16
    coexistence-802154.o                             12
    com.o                                            46
    counters-soc.o                                  448                        336
    create_zigbee_dev.o                           5'056               240    6'840
    crypto-state.o                                   16                          1
    cstartup-common.o                               204               256    2'598
    dev_common_utils.o                            1'280                         20
    dev_evt_pool.o                                1'388                      1'152
    dev_gpio.o                                    2'160                 2      224
    dev_queue.o                                     182
    ecc_use.o                                       816                22    2'156
    eeprom-afv2.o                                    12
    eeprom.o                                        920                         27
    em_cmu.o                                      2'312
    em_core.o                                        76
    em_emu.o                                        220
    em_gpio.o                                       360
    em_iadc.o                                     1'446
    em_msc.o                                         44      352      330
    em_rmu.o                                         28
    em_rtcc.o                                       184
    em_se.o                                         348
    em_system.o                                      32
    em_timer.o                                      488
    em_usart.o                                      574
    em_wdog.o                                       230
    ember-base-configuration.o                        6
    ember-configuration.o                            70                77   15'004
    ember-printf.o                                  742                36
    end-device-support.o                             96                         24
    find-and-bind-initiator.o                                                   40
    find-and-bind-target.o                           46
    form-and-join-afv2.o                             10                          8
    form-and-join-node-adapter.o                     88                 1        1
    form-and-join.o                                 918                         20
    gpiointerrupt.o                                 236                         64
    green-power-client.o                                                       124
    groups-server.o                               1'146
    hal-config-gpio.o                                 4
    hal-config.o                                    180
    hal_adc.o                                       488                         48
    hal_battery.o                                 1'092                44       72
    hal_common_tools.o                                4
    hal_uart_api.o                                1'688                      6'228
    identify.o                                      312                          4
    idle-sleep-soc.o                                238                          4
    idle-sleep.o                                    180                          3
    jsmn.o                                          896
    led.o                                             2
    mem-util.o                                      198
    message.o                                       382                 2      106
    mf_test.o                                     4'520                44    1'718
    mfg-token.o                                     728                14    8'192
    micro-common.o                                  220
    micro.o                                       1'744                10        8
    multi-network.o                                  88                          4
    network-steering-soc.o                           84                 1        1
    network-steering.o                            1'728                 5       72
    network_manager.o                             4'090                 1       46
    nvm3_default.o                                                     20   35'308
    nvm3_hal_flash.o                                268                28
    nvm3_lock.o                                      56                 5      180
    on-off.o                                          4
    ota-bootload-soc.o                               10
    ota-client-page-request.o                        32
    ota-client-policy.o                             116
    ota-client-signature-verify.o                     4
    ota-client.o                                  3'780                 2       40
    ota-common.o                                     58                12
    ota-storage-common.o                            468
    ota-storage-eeprom-page-erase.o                 816                 2       17
    ota-storage-eeprom.o                            740                11       28
    ota-storage-simple.o                            844                         24
    packet-handoff.o                                  8
    polling-soc.o                                    20
    print-formatter.o                                80
    print.o                                          80                          2
    process-global-message.o                                                     1
    random.o                                         84                 2        4
    reporting-default-configuration.o               112                20
    reporting.o                                   2'040                        488
    rtcdriver.o                                   1'680                 9      196
    scan-dispatch.o                                 372                        524
    scenes.o                                      1'584                          1
    security-address-cache.o                         16                          3
    serial.o                                         34
    service-discovery-common.o                    1'276                 1       98
    service-discovery-soc.o                          92
    silicon_lab_modify.o                          4'068                27      116
    sleep-efm32.o                                   492                          8
    tempdrv.o                                       532                         97
    time-server.o                                   212                 1        1
    time-util.o                                     552
    time_sync.o                                     692                 4       20
    token-def.o                                                     3'305
    token.o                                         712                          1
    tuya_sdk_callbacks.o                            228                         36
    uECC.o                                        3'796               180      832
    update-tc-link-key.o                            264                 3       24
    user_flash.o                                    424
    ustimer.o                                       480                         12
    util.o                                        2'060                 2       82
    zcl_command_micro.o                             212
    zigbee-device-common.o                           28                 1        2
    zigbee-device-library.o                         516
    zigbee_dev_template.o                                              12
    zigbee_sdk_core.o                             5'738                33      249
    zigbee_sdk_end_device_handle.o                1'594                 3       42
    zll-scenes-server.o                             468
    ------------------------------------------------------------------------------
    Total:                                       88'426      352    5'596   85'678

zigbee-pro-stack.a: [27]
    address-table.o                                 832
    aes.o                                            96                         16
    application-support.o                         2'648                 7       14
    aps-retry.o                                   2'300                         15
    association.o                                 6'524                19       92
    broadcast.o                                     452                 1       13
    byte-utilities.o                                 94
    child-aging.o                                   360
    child-handling.o                                768                         26
    child-table.o                                    72
    child.o                                       1'716                          1
    command.o                                     1'576                          1
    crypto.o                                      1'482
    duty-cycle-stub.o                                94                          9
    ember-duty-cycle-stub.o                           4
    ember-library.o                                 144                 1
    ember-multi-phy-stub.o                            8
    ember-random-api.o                               16
    ember-stack-common.o                            512
    eui64.o                                          24                          8
    event-control.o                                 592                          2
    jit.o                                           632                 1       15
    leave.o                                       1'010                 1       14
    lower-mac-efr32.o                             1'056                 1      148
    mac-dispatch.o                                   52                 1        1
    mac-header.o                                    824                 1       15
    mac-indirect.o                                1'461                 1       28
    management.o                                    760                 3       13
    neighbor-exchange.o                             932                          8
    neighbor.o                                    2'100                 1       12
    network.o                                     6'440                 2       25
    packet-buffer.o                               1'860                          1
    packet-header.o                                 600
    phy-config-MHz.o                                                   36
    phy-util.o                                       18
    phy.o                                         4'940               216      714
    radio_config_em3xxx_2.4GHz.o                      4                92
    radioaes.o                                      158
    radioaes_aes.o                                  256
    random-id.o                                     876                 1        3
    retry.o                                         770                         16
    route-discovery.o                             1'990                 1        2
    route-error.o                                   340
    route-table.o                                 1'336                 1        4
    scan.o                                        1'832                 2       67
    store-forward.o                                 556                         16
    symbol-timer.o                                  268                          8
    token-cache.o                                   388                 1        2
    unicast-table.o                                 100                         17
    upper-mac.o                                   2'520                         77
    zdo-channel.o                                 1'116                 1       19
    zigbee-device-util.o                          2'312                 2       22
    zigbee-device.o                               2'652                 5       12
    zigbee-dispatch.o                               256                         13
    zigbee-neighbor.o                               504
    zigbee-packet-header.o                        1'488
    zigbee-stack.o                                1'132                 5        9
    ------------------------------------------------------------------------------
    Total:                                       63'853               403    1'478

zigbee-r22-support-stub-library.a: [28]
    enhanced-beacon-request-stub.o                   40                 1        8
    mac-info-element-parsing-stub.o                  52
    zdo-r22-stub.o                                   28
    ------------------------------------------------------------------------------
    Total:                                          120                 1        8

zll-library.a: [29]
    zll-api.o                                     1'856                 4      126
    zll-interpan.o                                2'436                13       28
    zll-security.o                                  388
    zll-tokens.o                                    214
    ------------------------------------------------------------------------------
    Total:                                        4'894                17      154

    Gaps                                             33                 4        7
    Linker created                                   16                56   10'240
----------------------------------------------------------------------------------
    Grand Total:                                211'736      352   13'702   99'279


*******************************************************************************
*** ENTRY LIST
***

Entry                       Address    Size  Type      Object
-----                       -------    ----  ----      ------
.bss$$Base              0x2000'68a0           --   Gb  - Linker created -
.bss$$Limit             0x2000'd7f0           --   Gb  - Linker created -
.data_init$$Base           0x3'acb2           --   Gb  - Linker created -
.data_init$$Limit          0x3'b168           --   Gb  - Linker created -
.iar.init_table$$Base      0x3'b168           --   Gb  - Linker created -
.iar.init_table$$Limit     0x3'b1a0           --   Gb  - Linker created -
.noinit$$Base                   0x0           --   Gb  - Linker created -
.text$$Base                  0x4480           --   Gb  - Linker created -
.text$$Limit               0x3'7f98           --   Gb  - Linker created -
?main                      0x3'7ea9          Code  Gb  cmain.o [22]
AGC_IRQHandler             0x3'58af    0x30  Code  Gb  generic_phy.o [17]
ALIGN_CSTACK$$Base      0x2000'5558           --   Gb  - Linker created -
ALIGN_CSTACK$$Limit     0x2000'5eb8           --   Gb  - Linker created -
ALIGN_EMHEAP$$Base      0x2000'00a0           --   Gb  - Linker created -
ALIGN_EMHEAP$$Limit     0x2000'3a7c           --   Gb  - Linker created -
APPRO_block$$Base            0x4200           --   Gb  - Linker created -
APPRO_block$$Limit         0x3'b1a0           --   Gb  - Linker created -
APPRW_block$$Base       0x2000'5558           --   Gb  - Linker created -
APPRW_block$$Limit      0x2000'fff0           --   Gb  - Linker created -
BUFC_IRQHandler            0x3'5863     0x2  Code  Gb  generic_phy.o [17]
BUS_RegBitRead               0x5001     0xa  Code  Lc  dev_gpio.o [26]
BUS_RegBitWrite              0x8fc9    0x18  Code  Lc  em_gpio.o [26]
BUS_RegMaskedClear           0x8fe9     0x8  Code  Lc  em_gpio.o [26]
BUS_RegMaskedSet             0x8fe1     0x8  Code  Lc  em_gpio.o [26]
BUS_RegMaskedWrite           0x8ff1    0x14  Code  Lc  em_gpio.o [26]
CHIP_Init                  0x1'a94f    0x5c  Code  Lc  micro.o [26]
CMU_ClockDivGet            0x1'5b21    0x3a  Code  Gb  em_cmu.o [26]
CMU_ClockDivSet            0x1'5b5b    0x68  Code  Gb  em_cmu.o [26]
CMU_ClockEnable              0x5047     0x2  Code  Lc  dev_gpio.o [26]
CMU_ClockEnable              0x4903     0x2  Code  Lc  hal_uart_api.o [26]
CMU_ClockEnable            0x1'5935     0x2  Code  Lc  hal_adc.o [26]
CMU_ClockEnable            0x1'8165     0x2  Code  Lc  rtcdriver.o [26]
CMU_ClockEnable            0x1'87f1     0x2  Code  Lc  ustimer.o [26]
CMU_ClockFreqGet           0x1'5bc5    0xcc  Code  Gb  em_cmu.o [26]
CMU_ClockSelectGet         0x1'5c91    0xcc  Code  Gb  em_cmu.o [26]
CMU_ClockSelectSet         0x1'5d5d   0x236  Code  Gb  em_cmu.o [26]
CMU_HFXOInit               0x1'5f93   0x10a  Code  Gb  em_cmu.o [26]
CMU_Lock                   0x2'd997     0x8  Code  Lc  em_emu.o [26]
CMU_Unlock                 0x2'd99f     0xa  Code  Lc  em_emu.o [26]
CMU_UpdateWaitStates       0x1'609d     0x2  Code  Gb  em_cmu.o [26]
COM_DeInit                   0x8f9d     0x4  Code  Gb  com.o [26]
COM_ForceWriteData           0x8fa1     0x4  Code  Gb  com.o [26]
COM_InternalPowerDown        0x8f99     0x2  Code  Gb  com.o [26]
COM_InternalPowerUp          0x8f9b     0x2  Code  Gb  com.o [26]
COM_PrintfVarArg             0x8fa5    0x1a  Code  Gb  com.o [26]
COM_RxGpioWakeInit           0x8fc5     0x2  Code  Gb  com.o [26]
COM_WriteData                0x4c41    0x16  Code  Gb  hal_uart_api.o [26]
CORE_AtomicDisableIrq      0x2'd49d     0x8  Code  Wk  em_core.o [26]
CORE_AtomicEnableIrq       0x1'812d     0x8  Code  Wk  em_core.o [26]
CORE_EnterAtomic             0x9417     0xc  Code  Wk  em_core.o [26]
CORE_EnterCritical         0x3'475b     0x8  Code  Wk  em_core.o [26]
CORE_ExitAtomic              0x9423     0x6  Code  Wk  em_core.o [26]
CORE_ExitCritical          0x3'4763     0x8  Code  Wk  em_core.o [26]
CORE_IrqIsDisabled         0x1'80cd    0x1a  Code  Wk  em_core.o [26]
CSTACK$$Base            0x2000'5558           --   Gb  - Linker created -
CSTACK$$Limit           0x2000'5eb8           --   Gb  - Linker created -
DEBUG_CHANNEL$$Base             0x0           --   Gb  - Linker created -
DEBUG_CHANNEL$$Limit            0x0           --   Gb  - Linker created -
DelayTicksPolled           0x1'8945    0x2c  Code  Lc  ustimer.o [26]
EMHEAP$$Base            0x2000'00a0           --   Gb  - Linker created -
EMHEAP$$Length               0x39dc           --   Gb  - Linker created -
EMHEAP$$Limit           0x2000'3a7c           --   Gb  - Linker created -
EMU_EM4Init                0x2'da39    0x10  Code  Gb  em_emu.o [26]
EMU_EnterEM1               0x1'89f7     0xe  Code  Lc  sleep-efm32.o [26]
EMU_EnterEM2               0x2'd9ab    0x2a  Code  Gb  em_emu.o [26]
EMU_EnterEM3               0x2'd9d5    0x3c  Code  Gb  em_emu.o [26]
EMU_EnterEM4               0x2'da11    0x28  Code  Gb  em_emu.o [26]
EMU_IRQHandler             0x2'e311     0x2  Code  Gb  tempdrv.o [26]
EMU_IntClear               0x2'e2ed     0x8  Code  Lc  tempdrv.o [26]
EMU_IntDisable             0x2'e2f5     0x8  Code  Lc  tempdrv.o [26]
EMU_IntEnable              0x2'e2fd     0x8  Code  Lc  tempdrv.o [26]
EMU_IntGetEnabled          0x2'e305     0xc  Code  Lc  tempdrv.o [26]
EMU_UnlatchPinRetention
                           0x1'a9ab     0xa  Code  Lc  micro.o [26]
EMU_Unlock                 0x2'd98d     0xa  Code  Lc  em_emu.o [26]
FRC_IRQHandler             0x3'5481   0x392  Code  Gb  generic_phy.o [17]
FRC_PRI_IRQHandler         0x3'5861     0x2  Code  Gb  generic_phy.o [17]
GPIOINT_CallbackRegister
                             0x9ac3    0x18  Code  Gb  gpiointerrupt.o [26]
GPIOINT_IRQDispatcher        0x9adb    0x26  Code  Lc  gpiointerrupt.o [26]
GPIOINT_Init                 0x9aa7    0x1c  Code  Gb  gpiointerrupt.o [26]
GPIO_EVEN_IRQHandler         0x9b15    0x1c  Code  Gb  gpiointerrupt.o [26]
GPIO_ExtIntConfig            0x9033    0x64  Code  Gb  em_gpio.o [26]
GPIO_IntClear                0x48c7     0x8  Code  Lc  hal_uart_api.o [26]
GPIO_IntClear                0x9a8d     0x6  Code  Lc  gpiointerrupt.o [26]
GPIO_IntClear                0x9005     0x6  Code  Lc  em_gpio.o [26]
GPIO_IntClear              0x1'89e1     0x6  Code  Lc  sleep-efm32.o [26]
GPIO_IntDisable              0x48cf     0xe  Code  Lc  hal_uart_api.o [26]
GPIO_IntEnable               0x48dd     0xc  Code  Lc  hal_uart_api.o [26]
GPIO_IntGet                0x1'89e7     0x6  Code  Lc  sleep-efm32.o [26]
GPIO_IntGetEnabled           0x9a93     0xa  Code  Lc  gpiointerrupt.o [26]
GPIO_IntGetEnabled         0x1'89ed     0xa  Code  Lc  sleep-efm32.o [26]
GPIO_ODD_IRQHandler          0x9b31    0x1c  Code  Gb  gpiointerrupt.o [26]
GPIO_PinInGet                0x500b    0x10  Code  Lc  dev_gpio.o [26]
GPIO_PinModeSet              0x9097    0x76  Code  Gb  em_gpio.o [26]
GPIO_PinOutClear             0x501b    0x16  Code  Lc  dev_gpio.o [26]
GPIO_PinOutClear             0x900b    0x14  Code  Lc  em_gpio.o [26]
GPIO_PinOutSet               0x5031    0x16  Code  Lc  dev_gpio.o [26]
GPIO_PinOutSet               0x901f    0x14  Code  Lc  em_gpio.o [26]
GetAttributeFromGateway
                             0xd907    0x6c  Code  Gb  time_sync.o [26]
HEADER_block$$Base           0x4000           --   Gb  - Linker created -
HEADER_block$$Limit          0x40ac           --   Gb  - Linker created -
HEAP$$Base              0x2000'd7f0           --   Gb  - Linker created -
HEAP$$Limit             0x2000'fff0           --   Gb  - Linker created -
HardFault_Handler            0x4f4f     0x2  Code  Wk  startup_efr32mg21.o [14]
IADC_ConvertRawDataToResult
                           0x2'b35d    0x40  Code  Lc  em_iadc.o [26]
IADC_calcAdcClkPrescale
                           0x2'b837    0x4c  Code  Gb  em_iadc.o [26]
IADC_calcSrcClkPrescale
                           0x2'b807    0x30  Code  Gb  em_iadc.o [26]
IADC_calcTimebase          0x2'b7df    0x28  Code  Gb  em_iadc.o [26]
IADC_clearInt              0x2'b335     0x8  Code  Lc  em_iadc.o [26]
IADC_command               0x1'5937     0x4  Code  Lc  hal_adc.o [26]
IADC_command               0x2'b345     0x4  Code  Lc  em_iadc.o [26]
IADC_disable               0x2'b349     0xa  Code  Lc  em_iadc.o [26]
IADC_disableInt            0x2'b33d     0x8  Code  Lc  em_iadc.o [26]
IADC_enable                0x2'b353     0xa  Code  Lc  em_iadc.o [26]
IADC_init                  0x2'b39d   0x2a0  Code  Gb  em_iadc.o [26]
IADC_initSingle            0x2'b63d    0x88  Code  Gb  em_iadc.o [26]
IADC_pullScanFifoData      0x2'b329     0x6  Code  Lc  em_iadc.o [26]
IADC_pullSingleFifoData
                           0x2'b321     0x4  Code  Lc  em_iadc.o [26]
IADC_pullSingleFifoResult
                           0x2'b8bd     0xa  Code  Gb  em_iadc.o [26]
IADC_readScanData          0x2'b32f     0x6  Code  Lc  em_iadc.o [26]
IADC_readSingleData        0x2'b325     0x4  Code  Lc  em_iadc.o [26]
IADC_reset                 0x2'b725    0xba  Code  Gb  em_iadc.o [26]
IADC_updateSingleInput     0x2'b6e1    0x44  Code  Gb  em_iadc.o [26]
INTERNAL_STORAGE$$Base          0x0           --   Gb  - Linker created -
KEY_JITTER_TIMES        0x2000'601c     0x4  Data  Lc  dev_gpio.o [26]
LinkKeyUpdateTimerMilliseconds
                        0x2000'6328     0x4  Data  Lc  update-tc-link-key.o [26]
MACSEQ_AckDoneEvent        0x1'c4ef    0x30  Code  Lc  phy.o [27]
MACSEQ_RxFrameDetected     0x1'c589    0x20  Code  Lc  phy.o [27]
MACSEQ_TOUT0MatchLBTEvent
                           0x1'c4c3     0x8  Code  Lc  phy.o [27]
MACSEQ_TransmitErrorEvent
                           0x1'c52d    0x5c  Code  Lc  phy.o [27]
MALLOC_STATIC                0x9b4d    0x44  Code  Gb  create_zigbee_dev.o [26]
MODEM_IRQHandler           0x3'58ad     0x2  Code  Gb  generic_phy.o [17]
MSC_Deinit                 0x3'477d    0x14  Code  Gb  em_msc.o [26]
MSC_ErasePage           0x2000'5f4d    0x42  Code  Gb  em_msc.o [26]
MSC_Init                   0x3'476d    0x10  Code  Gb  em_msc.o [26]
MSC_WriteWord           0x2000'5f8f    0x6c  Code  Gb  em_msc.o [26]
NMI_Handler                0x2'a405     0x2  Code  Wk  startup_efr32mg21.o [14]
NVIC_EncodePriority        0x1'a919    0x36  Code  Lc  micro.o [26]
PRORTC_IRQHandler          0x3'7e69    0x12  Code  Gb  rfhal_rtccsync.o [17]
PROTIMER_IRQHandler        0x3'5865     0x2  Code  Gb  generic_phy.o [17]
PTI_AuxdataOutput          0x3'790d     0xe  Code  Gb  rfhal_pti.o [17]
PendSV_Handler               0x61f3    0x24  Code  Gb  dev_evt_pool.o [26]
Queue_Read_Byte              0x4ced    0x44  Code  Lc  hal_uart_api.o [26]
RAC_RSM_IRQHandler         0x3'5869    0x30  Code  Gb  generic_phy.o [17]
RAC_SEQ_IRQHandler         0x3'5867     0x2  Code  Gb  generic_phy.o [17]
RAILCb_AssertFailed        0x1'c759     0x8  Code  Gb  phy.o [27]
RAILCb_CalcBitRate         0x1'a9b5     0x4  Code  Gb  micro.o [26]
RAILCb_ConfigFrameTypeLength
                           0x1'a9b9     0x2  Code  Gb  micro.o [26]
RAILCb_Events              0x1'c7c7   0x21e  Code  Lc  phy.o [27]
RAILCb_RxAckTimeout        0x1'c4cb    0x24  Code  Lc  phy.o [27]
RAILCb_RxPacketReceived
                           0x1'c5b9   0x19a  Code  Lc  phy.o [27]
RAILCb_SetupRxFifo         0x2'edc9    0x2c  Code  Wk  rail_data.o [17]
RAILCb_TimerExpired        0x3'32f1     0x4  Code  Lc  symbol-timer.o [27]
RAILINT_0030aaf1be11a73e163f8aa48fb001e6
                           0x3'0b3f    0x22  Code  Gb  rail_rf_hal.o [17]
RAILINT_01bcfe0ae5366b67a85a77fccdd90bcb
                        0x2000'd550    0x18  Data  Gb  rfhal_radio.o [17]
RAILINT_023f2cf2a2a5edcfa10ef64050265cd5
                           0x3'05b3    0x1a  Code  Gb  rail_rf_hal.o [17]
RAILINT_02b5f58b2ace2c87fac8c8ae61769272
                        0x2000'd7ee     0x1  Data  Lc  generic_phy.o [17]
RAILINT_02bfb1ed752e3e1fc3b1ad06532f94f9
                           0x3'7663    0x5a  Code  Gb  rfhal_synth.o [17]
RAILINT_035459de60aa4dfd14002e3569d051b2
                           0x1'f797     0x2  Code  Lc  rail_rf.o [17]
RAILINT_036ea79c390686343777d19dd1ff79e6
                           0x3'7c37     0x6  Code  Gb  rfhal_antenna.o [17]
RAILINT_0375c6c13bc042cb0fb6e2f58650d179
                           0x3'727b    0x10  Code  Gb  rfhal_protimer.o [17]
RAILINT_039c8837b55b4124ec147be26732b79a
                           0x2'ff45     0x8  Code  Gb  rail_rf_hal.o [17]
RAILINT_046ec880f80d9b9e6f8a12ec802b3587
                           0x2'e978    0x28  Data  Lc  rail_singleprotocol.o [17]
RAILINT_04cbac11d3a00364f007965ea72d9ea7
                           0x3'6675   0x208  Code  Gb  rfhal_pa.o [17]
RAILINT_05831ea87f834358b3b734107f7b63dd
                        0x2000'6c91     0x1  Data  Lc  generic_phy.o [17]
RAILINT_06d3d408af442bc7f395514867b33be3
                           0x3'77a1    0xc6  Code  Gb  rfhal_rand.o [17]
RAILINT_0742fb6d07f3bc6569a4f853fab6d13b
                           0x3'5ad3    0x3e  Code  Gb  rfhal_radio.o [17]
RAILINT_074d00355e69f06bd5d99672a2e044d2
                           0x3'06d3    0x42  Code  Gb  rail_rf_hal.o [17]
RAILINT_078620101a414c291cf33a28f149682b
                        0x2000'67ec     0x4  Data  Lc  rail_rf_hal.o [17]
RAILINT_07e4f609bdcdf4fba439463d1d9a6ac4
                           0x3'6c67    0x36  Code  Lc  rfhal_bufc.o [17]
RAILINT_0993e690b56daf301de96138ad0c53c2
                           0x3'05a9     0xa  Code  Gb  rail_rf_hal.o [17]
RAILINT_09d0ed7f5393bfdb2b85e23824069ac2
                           0x3'07b9    0x18  Code  Gb  rail_rf_hal.o [17]
RAILINT_0a11f81288e13d65e206a462a9d88b8c
                           0x3'63e1    0x40  Code  Lc  rfhal_pa.o [17]
RAILINT_0a7d1d9a24308e68c2362d7ddca762b2
                           0x3'0865    0x14  Code  Gb  rail_rf_hal.o [17]
RAILINT_0a87e309ba8abd95d05e4c6bd7414f2e
                           0x2'ee3b    0x8a  Code  Gb  rail_autoack.o [17]
RAILINT_0cdb976df793f6799e20dfa42e2be4c6
                           0x3'9760  0x14fc  Data  Gb  generic_efr32xg21_seq.o [17]
RAILINT_0d329ee0ff41eaa580d3696b8435d423
                           0x3'48f5    0x32  Code  Gb  rail_ieee802154_rf_hal.o [17]
RAILINT_0dcbc1c5741e5616a7ff6a953babd494
                        0x2000'67f9     0x1  Data  Gb  rfhal_pa.o [17]
RAILINT_0f20f09667ed4e3a1e5d1d288e22e48d
                           0x3'4d33    0x18  Code  Lc  generic_phy.o [17]
RAILINT_0f9d1e26abedef5a5603dcefe1e88cf3
                           0x3'6b81    0x40  Code  Gb  rfhal_bufc.o [17]
RAILINT_10f6a552fd0d0d16e38e6471691d3c2c
                           0x3'47e5     0x2  Code  Gb  rfhal_ircal.o [17]
RAILINT_111951cdcab0e53df3caf59855bd586f
                           0x3'65b1    0xbe  Code  Gb  rfhal_pa.o [17]
RAILINT_11631ae50db50a4ed31c6e152f08df53
                        0x2000'd5a0     0x4  Data  Gb  rfhal_synth.o [17]
RAILINT_116bc923d0e61993c95103150eecb77d
                        0x2000'd538    0x14  Data  Lc  rfhal_pti.o [17]
RAILINT_138e338ae68581f7cb673a4f2dd4fb88
                           0x3'499b     0x8  Code  Gb  rail_ieee802154_rf_hal.o [17]
RAILINT_1446b673acaddfc4b02974cda9fee981
                           0x3'58ed    0x22  Code  Gb  generic_phy.o [17]
RAILINT_15165ba22b471a208be11581197fd0a6
                           0x3'6af9    0x12  Code  Gb  rfhal_bufc.o [17]
RAILINT_1599e5f4ff7e6888d45347c4802ff98b
                           0x3'9450    0x28  Data  Lc  ieee802154_efr32xg21_configurator_out.o [17]
RAILINT_15f41d525e47bce0bc819cb1650ace43
                           0x3'72c7    0x3c  Code  Lc  rfhal_protimer.o [17]
RAILINT_165a1454d82cd0dd3ce2f950482478b0
                        0x2000'd568    0x30  Data  Gb  rfhal_radio.o [17]
RAILINT_16b5052241e30bfb5cd299c52e62f8ab
                           0x3'707b    0x1a  Code  Gb  rfhal_protimer.o [17]
RAILINT_1749afcf59240130e2fd792a80caca63
                           0x2'e8c3     0x4  Code  Lc  rail_singleprotocol.o [17]
RAILINT_178c5690dd72d999366a746b6b7eebf2
                        0x2000'67dc     0x4  Data  Lc  rail_rf_hal.o [17]
RAILINT_17ec0d51cc736a2cae660cf07da0ebb2
                           0x3'4a94     0x1  Data  Lc  rail_ieee802154_rf_hal.o [17]
RAILINT_18c1b3588643b73f116dbf73c0348437
                           0x3'5b61    0xbe  Code  Gb  rfhal_radio.o [17]
RAILINT_198fb20d7a5714430b804cdff0070c61
                        0x2000'd5a4     0x4  Data  Lc  rfhal_timings.o [17]
RAILINT_1a57708df4a471fff9f16a8262d34baf
                           0x3'4d6b    0x14  Code  Lc  generic_phy.o [17]
RAILINT_1b1816dbe56c62221e8a1a4f88e54ac4
                           0x3'0e75    0x36  Code  Gb  rail_rf_hal.o [17]
RAILINT_1cbd9aae4211f23e0df90463f857d51c
                           0x1'f709     0x6  Code  Lc  rail_rf.o [17]
RAILINT_1cbd9aae4211f23e0df90463f857d51c
                           0x2'e9a1     0x6  Code  Lc  rail_calibration.o [17]
RAILINT_1cbd9aae4211f23e0df90463f857d51c
                           0x2'e871     0x6  Code  Lc  rail_singleprotocol.o [17]
RAILINT_1cbd9aae4211f23e0df90463f857d51c
                           0x2'ea5f     0x6  Code  Lc  rail_tx.o [17]
RAILINT_1cbd9aae4211f23e0df90463f857d51c
                           0x2'ed55     0x6  Code  Lc  rail_data.o [17]
RAILINT_1cbd9aae4211f23e0df90463f857d51c
                           0x2'eb19     0x6  Code  Lc  rail_ieee802154.o [17]
RAILINT_1cbd9aae4211f23e0df90463f857d51c
                           0x2'ee35     0x6  Code  Lc  rail_autoack.o [17]
RAILINT_1d08617b4158ea727f231990ac8baf5d
                           0x3'009f    0x14  Code  Gb  rail_rf_hal.o [17]
RAILINT_1d8a0bd4448dc8ff7bf5baa2b859291d
                        0x2000'd3ac    0x20  Data  Lc  pa_conversions_efr32.o [17]
RAILINT_1da16d11dd0b95d143c10378b526aaf5
                           0x3'48b5    0x22  Code  Lc  rail_ieee802154_rf_hal.o [17]
RAILINT_1dfb7146b6c340088be45e5b808844a9
                           0x3'73fd    0x24  Code  Gb  rfhal_protimer.o [17]
RAILINT_1ebf782210eb338b16b0b98d1dbf9a58
                           0x3'0ed9     0xa  Code  Gb  rail_rf_hal.o [17]
RAILINT_20043ff5b8e6ab39c3068dab7403a8c6
                           0x2'fd29    0xa6  Code  Gb  rail_rf_hal.o [17]
RAILINT_20405add256d5061bc482206e21c44d6
                           0x1'f9f3    0x34  Code  Gb  rail_rf.o [17]
RAILINT_213b73c530964abd11d695e9b1ed253b
                           0x3'621d    0x74  Code  Gb  rfhal_pa.o [17]
RAILINT_22f7df12e4a1d0a9505ecc05b8267876
                           0x3'0a9d    0x48  Code  Gb  rail_rf_hal.o [17]
RAILINT_232b67d119ad2a1a23589ef6ecfa72b8
                           0x3'51e7   0x11e  Code  Gb  generic_phy.o [17]
RAILINT_24a8a45a4a53cfb85f6ffa15e68f8787
                           0x3'7903     0xa  Code  Gb  rfhal_pti.o [17]
RAILINT_261bed1c08603d5f03596ee3508d7f5c
                           0x3'4e07    0x24  Code  Lc  generic_phy.o [17]
RAILINT_263c92ff0e9d5e58307a6683b710ae3a
                           0x3'7739     0x6  Code  Gb  rfhal_synth.o [17]
RAILINT_26621d98bc1a2dc74b7093edea89d850
                           0x3'5831    0x2a  Code  Gb  generic_phy.o [17]
RAILINT_2690d337dc905aba42da2e1480e9e599
                           0x3'7798     0x8  Data  Lc  rfhal_synth.o [17]
RAILINT_26e29064035a2e41b04f8081aa3f66ae
                           0x3'7505    0x26  Code  Gb  rfhal_synth.o [17]
RAILINT_26e563e80692df32dd85307faf7cc714
                           0x3'07d9    0x54  Code  Gb  rail_rf_hal.o [17]
RAILINT_271c6718290e2f8d30ab861e3b599124
                        0x2000'd598     0x4  Data  Gb  rfhal_synth.o [17]
RAILINT_272f523150a9cfd3b43a9c6acd05177b
                           0x3'0849    0x14  Code  Gb  rail_rf_hal.o [17]
RAILINT_27caddbd78e0754d06f84e81d9e2e8a1
                           0x2'e8bf     0x4  Code  Lc  rail_singleprotocol.o [17]
RAILINT_28125782553cb9ad9ad09407b3dc0170
                        0x2000'67ce     0x2  Data  Lc  rail_rf_hal.o [17]
RAILINT_282e8e595cc122f4255fffe5b736491a
                           0x3'7735     0x2  Code  Gb  rfhal_synth.o [17]
RAILINT_283d95319b191dae7c4b046e000c2501
                        0x2000'd54c     0x4  Data  Lc  rfhal_pti.o [17]
RAILINT_2949c6f96a5369d7c395df7c85902aca
                           0x3'6964     0x8  Data  Lc  rfhal_pa.o [17]
RAILINT_29c9defa35830e42db517a1c47cc114e
                           0x3'73ef     0xe  Code  Gb  rfhal_protimer.o [17]
RAILINT_2a171d742137ebdc1d7125d9facbe6ee
                           0x3'642d    0x5e  Code  Lc  rfhal_pa.o [17]
RAILINT_2ae173a878096855d408617a125c7b42
                           0x3'4799     0x6  Code  Gb  rail_rssi.o [17]
RAILINT_2c75618186ad9b36b0d0c27032e410f8
                        0x2000'd534     0x4  Data  Lc  rfhal_protimer.o [17]
RAILINT_2d49aecfcb6d27d54075c2234a55d5e7
                           0x3'0361   0x132  Code  Gb  rail_rf_hal.o [17]
RAILINT_2d7872fa469c5c3d625d9a44038f1131
                        0x2000'67e4     0x4  Data  Lc  rail_rf_hal.o [17]
RAILINT_2d842bc4956df1568fdd528b3b124237
                        0x2000'd52c     0x4  Data  Lc  rfhal_protimer.o [17]
RAILINT_2e01a950c11d2ab5ab8fa0bfed069a7e
                        0x2000'd44c     0x4  Data  Lc  rail_rf_hal.o [17]
RAILINT_2eccf034715b8ba05af84a94f4d582ab
                        0x2000'67f8     0x1  Data  Gb  rfhal_pa.o [17]
RAILINT_2f59d45cdf711c2da6f6c18c53307062
                           0x3'5b11    0x4c  Code  Gb  rfhal_radio.o [17]
RAILINT_2f82c85b6130cbf374f8cb60e14f8d16
                        0x2000'd448     0x2  Data  Lc  rail_rf_hal.o [17]
RAILINT_2fb29802233c0b2640c9261daa520efe
                        0x2000'd528     0x4  Data  Lc  rfhal_protimer.o [17]
RAILINT_3041ee68c2b41950b0bf839d27f5d049
                           0x2'ff4d    0x2a  Code  Gb  rail_rf_hal.o [17]
RAILINT_317b2845ec8597b7fc18708aa55d49e9
                           0x3'6dd7    0x20  Code  Gb  rfhal_bufc.o [17]
RAILINT_3212ddcec5ace9cb56e8f1cb3ca8d33c
                           0x3'04bd    0x70  Code  Gb  rail_rf_hal.o [17]
RAILINT_3249bafee0e18f9151d82aad8ddf3cdc
                           0x3'08f5    0x56  Code  Gb  rail_rf_hal.o [17]
RAILINT_32c304ccecba5b19690d9e7ea8ff132a
                           0x3'47c5    0x20  Code  Gb  rfhal_ircal.o [17]
RAILINT_330373561ddae26fa64ec7a671649082
                        0x2000'67fc     0x1  Data  Lc  rfhal_pa.o [17]
RAILINT_3556e92d90b32ec72a5fb6f75d53815b
                           0x3'68c3    0x20  Code  Lc  rfhal_pa.o [17]
RAILINT_35b8763cff7a5eec3b0602741356482f
                           0x3'62c9    0x56  Code  Gb  rfhal_pa.o [17]
RAILINT_3658b6723ab18c9d199bd55de18aba6a
                           0x3'7c0d    0x2a  Code  Gb  rfhal_antenna.o [17]
RAILINT_378f9ba2bb60cd348bf1a73dc64fc6af
                           0x3'0daf    0x5a  Code  Gb  rail_rf_hal.o [17]
RAILINT_3847d509158789abf28c8f309e81ccb4
                           0x3'5a97    0x3c  Code  Gb  rfhal_radio.o [17]
RAILINT_38664486515b193c61f7510314f8f3aa
                           0x3'6085    0x12  Code  Gb  rfhal_timings.o [17]
RAILINT_38d9afbbe8eaface357c98652900bf2f
                           0x3'738f    0x4c  Code  Gb  rfhal_protimer.o [17]
RAILINT_39475387e0cb29596ec425b4cfae76fb
                           0x3'094b    0x38  Code  Gb  rail_rf_hal.o [17]
RAILINT_39d00ddcadbc93313393e1c6bb75297c
                           0x3'0685    0x32  Code  Gb  rail_rf_hal.o [17]
RAILINT_3a55e7949d89f0fa8ebe0c8d91526f77
                           0x2'ece0     0x8  Data  Lc  rail_ieee802154.o [17]
RAILINT_3a7f36375c49f19d1f9a6b6388464608
                           0x3'06b7     0xc  Code  Gb  rail_rf_hal.o [17]
RAILINT_3a847ed90c579c869d6482ca84d622f3
                           0x3'6201    0x1c  Code  Gb  rfhal_timings.o [17]
RAILINT_3ae629f839d8f3929a5fb0645e9e9628
                           0x3'085d     0x8  Code  Gb  rail_rf_hal.o [17]
RAILINT_3dc39d8bd3ead7cabb5db75d164be60c
                           0x3'0777    0x3a  Code  Gb  rail_rf_hal.o [17]
RAILINT_3e336bf8f68fd2cdca1ad9053b1bcaa8
                           0x3'4927    0x1a  Code  Gb  rail_ieee802154_rf_hal.o [17]
RAILINT_3f0b6529856489702e1c986caf70e7aa
                           0x2'e9bf    0x2c  Code  Gb  rail_calibration.o [17]
RAILINT_4023934c67ddd0d583f73647d279ff8c
                           0x3'0579    0x26  Code  Gb  rail_rf_hal.o [17]
RAILINT_40412a06a73a58611332d278503bc3d6
                           0x2'fe3f    0x4e  Code  Gb  rail_rf_hal.o [17]
RAILINT_422ca0e9066028a81c1298adea0a2a5e
                        0x2000'67e8     0x4  Data  Lc  rail_rf_hal.o [17]
RAILINT_447e5dac20fd9c5dfa98d0c6fd17af77
                        0x2000'd59c     0x4  Data  Gb  rfhal_synth.o [17]
RAILINT_464368b2b238869e6c6fc839581f982a
                           0x3'6055    0x1e  Code  Gb  rfhal_timings.o [17]
RAILINT_46afedb5ae9454ff7210c7321de838ec
                           0x3'50a7    0x78  Code  Gb  generic_phy.o [17]
RAILINT_477315d1eadc35e75a8b5b849f736330
                           0x2'fbb9    0x18  Code  Lc  rail_rf_hal.o [17]
RAILINT_49c1638648869baaf18ca93f541e7dd3
                           0x3'5ddd    0x4c  Code  Gb  rfhal_radio.o [17]
RAILINT_49d18d23563d6be8a8e77be7702cfc3a
                           0x3'74d9    0x10  Code  Gb  rfhal_tempcal.o [17]
RAILINT_4b2a638f543a6cc96706a5b37f7e60ca
                        0x2000'd44a     0x1  Data  Lc  rail_rf_hal.o [17]
RAILINT_4d611efbf25af2549a10a649179eb547
                           0x3'4d4b     0x6  Code  Lc  generic_phy.o [17]
RAILINT_4d8e913cc0a2a756e4017ab74ecff076
                           0x1'f731    0x66  Code  Gb  rail_rf.o [17]
RAILINT_4dc62618585dc50e21165fd7ed166974
                           0x3'0151   0x130  Code  Gb  rail_rf_hal.o [17]
RAILINT_4eb2ae9f36fa4cbec3cde3a1c7fac051
                           0x3'7559   0x10a  Code  Lc  rfhal_synth.o [17]
RAILINT_4fd600df73ad738dc6134784e52dde98
                           0x3'052d     0x8  Code  Gb  rail_rf_hal.o [17]
RAILINT_5028a6b9d4ee8edd2bfa4ed98465cea4
                           0x3'6d89    0x38  Code  Gb  rfhal_bufc.o [17]
RAILINT_505e31cf62a405ed69f52aea2f38fc95
                           0x3'48ef     0x6  Code  Gb  rail_ieee802154_rf_hal.o [17]
RAILINT_5191d19cdec3b4ae777036af4371e407
                           0x3'0573     0x6  Code  Gb  rail_rf_hal.o [17]
RAILINT_549ae7c6edbff50f2340752aad688b72
                           0x3'4f7b   0x12c  Code  Gb  generic_phy.o [17]
RAILINT_5529a7fedbc1f978956ae0b49513f0b3
                        0x2000'6c90     0x1  Data  Lc  generic_phy.o [17]
RAILINT_583160a38ded29811f0bca4a5d912643
                           0x3'5d19    0x1c  Code  Gb  rfhal_radio.o [17]
RAILINT_58b10adca92e155dd754c3525bf9c19d
                           0x2'fb5d    0x18  Code  Lc  rail_rf_hal.o [17]
RAILINT_59121321a1358ecc506fdb12a688e30c
                           0x1'f713    0x1e  Code  Gb  rail_rf.o [17]
RAILINT_597d52f427434d6266c082069c7a87b4
                           0x3'5e87    0x12  Code  Gb  rfhal_radio.o [17]
RAILINT_5a04132ce805a59a193609f39293693e
                           0x3'5d35    0x30  Code  Gb  rfhal_radio.o [17]
RAILINT_5a1f8c6c11575b3b85ca7be599aaafeb
                           0x3'6a45    0xb4  Code  Gb  rfhal_bufc.o [17]
RAILINT_5b96d239ae15c75cb47034d098feaa12
                        0x2000'6c10    0x80  Data  Lc  rfhal_bufc.o [17]
RAILINT_5bb11e8550b329b01c70a60522ae80ea
                           0x3'6a29    0x1a  Code  Gb  rfhal_bufc.o [17]
RAILINT_5c4d31e3c6342518c355da807a5f4536
                           0x3'4973    0x1c  Code  Gb  rail_ieee802154_rf_hal.o [17]
RAILINT_5c4dc1c338d7d9e4640df5e9afaed37f
                        0x2000'67d0     0x2  Data  Lc  rail_rf_hal.o [17]
RAILINT_5c6bfe45ace488b868a3c3126769eb32
                        0x2000'd1a8     0x4  Data  Lc  rail_singleprotocol.o [17]
RAILINT_5e9e1dc7a349e54faad656cb299b1c1e
                           0x3'0b99    0x2e  Code  Gb  rail_rf_hal.o [17]
RAILINT_5f7114cf3ce03d53615d89fe78177694
                           0x3'4d7f    0x48  Code  Lc  generic_phy.o [17]
RAILINT_60c29796d4368fee9b7d114bf204b331
                           0x1'f9ab    0x36  Code  Gb  rail_rf.o [17]
RAILINT_60f6b291f0330cb2406c5c83aff48956
                           0x2'fdd5    0x6a  Code  Lc  rail_rf_hal.o [17]
RAILINT_61072351127ca861ab3b792c81e2416a
                           0x3'5b5d     0x4  Code  Gb  rfhal_radio.o [17]
RAILINT_614f204a7b13cb23c1ef2505817f29ee
                           0x3'9478   0x1fc  Data  Gb  ieee802154_efr32xg21_configurator_out.o [17]
RAILINT_617d24aaa96b109b944f2d7b30deabd2
                           0x3'697d     0xc  Code  Lc  rfhal_bufc.o [17]
RAILINT_61c9d71f684b76e42282d930d521b075
                        0x2000'd530     0x4  Data  Lc  rfhal_protimer.o [17]
RAILINT_626c1fc01166bc7b6fc33ede70752233
                           0x3'0ee3     0xa  Code  Gb  rail_rf_hal.o [17]
RAILINT_6292ad87366c1f756ae6fd427ee5e393
                           0x2'ebb1    0x5c  Code  Lc  rail_ieee802154.o [17]
RAILINT_6404b7e2394e171eddffaf17db29dc90
                        0x2000'6c98     0x8  Data  Lc  generic_phy.o [17]
RAILINT_65fd529d5102d24f22080b49b3023310
                           0x3'69a1    0x18  Code  Lc  rfhal_bufc.o [17]
RAILINT_661cd5b832e0dc684eca55cf65a1a4bd
                           0x3'4f33    0x48  Code  Lc  generic_phy.o [17]
RAILINT_67b8f114888c610aba62f28a55421a70
                           0x1'f799    0x20  Code  Gb  rail_rf.o [17]
RAILINT_6933b33bcba9ce817d4fee78f878e935
                           0x3'0e09     0x4  Code  Gb  rail_rf_hal.o [17]
RAILINT_694c95a636c2676b38874f440d01cfce
                        0x2000'd7b0     0x2  Data  Lc  rail_rf_hal.o [17]
RAILINT_6a3e91138a73cc346e3bd5bfba3507f8
                           0x3'6179     0x2  Code  Gb  rfhal_timings.o [17]
RAILINT_6b5630b34036f93858d808a0dec3cb6b
                           0x3'0c01   0x10c  Code  Gb  rail_rf_hal.o [17]
RAILINT_6bd2117c8171de0af4fb11c5c50ecf91
                           0x2'fbb7     0x2  Code  Lc  rail_rf_hal.o [17]
RAILINT_6d729d30865a1181274e70bba293b37d
                           0x3'0bd1    0x24  Code  Gb  rail_rf_hal.o [17]
RAILINT_6d8fbe8d751afa545612026690abd42a
                           0x2'ff2d    0x18  Code  Gb  rail_rf_hal.o [17]
RAILINT_6d9bee962b701091e47b6903da85fa19
                        0x2000'6818     0x4  Data  Lc  ieee802154_efr32xg21_configurator_out.o [17]
RAILINT_6ef679d9818c969b9222f0742aabb2aa
                           0x2'e8b7     0x4  Code  Lc  rail_singleprotocol.o [17]
RAILINT_6ff686c2bc8988da1ee51a2018ba5299
                           0x2'fb8f    0x28  Code  Lc  rail_rf_hal.o [17]
RAILINT_705328727e6820e170e42b36e35c3d0b
                           0x3'49ff    0x26  Code  Gb  rail_ieee802154_rf_hal.o [17]
RAILINT_70904a3279b20a0b2a79268813dc3504
                           0x3'00b3    0x9e  Code  Gb  rail_rf_hal.o [17]
RAILINT_719fe44ae96c035d199c077027efb6bd
                           0x3'48d7     0x4  Code  Gb  rail_ieee802154_rf_hal.o [17]
RAILINT_71ca4d128f7b760efbe34c84e0f0750c
                           0x1'f999    0x12  Code  Lc  rail_rf.o [17]
RAILINT_71f3eb02ec48f35d649397433f8850a1
                           0x3'5181    0x2a  Code  Lc  generic_phy.o [17]
RAILINT_72cbbbe33b4eecc88879bc157b76df32
                           0x3'0d1f     0x6  Code  Gb  rail_rf_hal.o [17]
RAILINT_72eb364d7718334eae17f88a79f3de40
                           0x1'f7ed    0x90  Code  Gb  rail_rf.o [17]
RAILINT_7333477fe484b7c355c95cdae836aac4
                        0x2000'6c08     0x4  Data  Lc  rfhal_bufc.o [17]
RAILINT_7340662f8076c6df26ddd5f2b9cd6a27
                           0x3'0997    0xf6  Code  Gb  rail_rf_hal.o [17]
RAILINT_73735773e118c31aba394dc11d834120
                           0x2'fb45    0x18  Code  Lc  rail_rf_hal.o [17]
RAILINT_73735773e118c31aba394dc11d834120
                           0x3'6989    0x18  Code  Lc  rfhal_bufc.o [17]
RAILINT_766a50f4d62b8145bfeba05efaf84c8b
                           0x3'0e31    0x3c  Code  Gb  rail_rf_hal.o [17]
RAILINT_77126f8bef08113f707ea0f14ef6a17e
                           0x3'0d29    0x3c  Code  Gb  rail_rf_hal.o [17]
RAILINT_77d4756c7168c644888927d76324eba9
                           0x3'5371    0xc8  Code  Lc  generic_phy.o [17]
RAILINT_7a5001608b03efa1d6247aaed0a5a401
                        0x2000'67f0     0x2  Data  Lc  rail_rf_hal.o [17]
RAILINT_7abbbc1c5f68d9f8e06526c4dd269392
                           0x3'511f    0x16  Code  Gb  generic_phy.o [17]
RAILINT_7c3939968d37942d18dd9b2d13ce2344
                           0x3'9434    0x1c  Data  Lc  ieee802154_efr32xg21_configurator_out.o [17]
RAILINT_7c575f2fe6a8ee0d9ff21025412895c2
                        0x2000'67fb     0x1  Data  Lc  rfhal_pa.o [17]
RAILINT_7d94510f515617be26a284cc8096bd57
                           0x2'fbd1   0x12a  Code  Gb  rail_rf_hal.o [17]
RAILINT_7eae5faad95e83134e2b9bc718f32f6f
                           0x3'055d    0x16  Code  Gb  rail_rf_hal.o [17]
RAILINT_7eeef8c81b762192075d8ad97b10b0eb
                           0x3'5f2c     0x8  Data  Lc  rfhal_radio.o [17]
RAILINT_82cb69b0972fa2512c3bdb5f16e24fca
                           0x3'0715    0x62  Code  Gb  rail_rf_hal.o [17]
RAILINT_8309d0303dd52c35776f1b9d204e124b
                           0x3'69f5    0x34  Code  Gb  rfhal_bufc.o [17]
RAILINT_833ef1b435e1d6dcacb5e19d3b6f023f
                           0x3'05e7    0x38  Code  Gb  rail_rf_hal.o [17]
RAILINT_85a3ac751c0cad03fb68537f712f5198
                           0x3'6097    0xcc  Code  Lc  rfhal_timings.o [17]
RAILINT_85daa417ca3172fe94c5a5a9118221ba
                        0x2000'd450     0x4  Data  Lc  rail_rf_hal.o [17]
RAILINT_863e47b662868a905309f7c8a07e8234
                           0x3'0835    0x14  Code  Gb  rail_rf_hal.o [17]
RAILINT_8696c02f73cfadab83691294da2e9999
                           0x3'696c    0x10  Data  Lc  rfhal_pa.o [17]
RAILINT_8732a6d54f1a114a5f1d22ce8d94f1b5
                        0x2000'6800     0x1  Data  Lc  rfhal_pa.o [17]
RAILINT_87ca22770b2c0e007720e383f3143457
                           0x3'6bc1    0x12  Code  Gb  rfhal_bufc.o [17]
RAILINT_887611763de1cbf6e85d5b354bcca426
                           0x3'5a61    0x12  Code  Gb  rfhal_radio.o [17]
RAILINT_89727e3a666e4c7176188d30b8bafda4
                           0x3'5a73    0x24  Code  Gb  rfhal_radio.o [17]
RAILINT_89ee9cd3eee65b37bee8eed7a9b631b6
                           0x3'06c3    0x10  Code  Gb  rail_rf_hal.o [17]
RAILINT_8a2ace27400e3258535b169719881c67
                        0x2000'6784     0x4  Data  Lc  rail_rf.o [17]
RAILINT_8a726f81df0e0f431911ae6c74b74fff
                           0x2'fcfb    0x2c  Code  Gb  rail_rf_hal.o [17]
RAILINT_8a869172492fd52037b11475c864ae39
                        0x2000'd518     0x8  Data  Gb  rfhal_protimer.o [17]
RAILINT_8cefccbe80092341b26dfcb3dfe39bbc
                        0x2000'67f4     0x4  Data  Lc  rail_rf_hal.o [17]
RAILINT_8e105975b01e29d2917124d3a2a6edc9
                           0x3'6fb9    0xc2  Code  Gb  rfhal_protimer.o [17]
RAILINT_8e2592f2324a549fc91cbf2e772e0c64
                        0x2000'678c     0x4  Data  Lc  rail_rf.o [17]
RAILINT_8e847f208fd9b287a5760accb94a663b
                           0x3'4a25    0x48  Code  Gb  rail_ieee802154_rf_hal.o [17]
RAILINT_8eca1e944f2c00e1acdd775a43afb04a
                        0x2000'6c93     0x1  Data  Lc  generic_phy.o [17]
RAILINT_8eec7cad63620a62d7b73bab33eafd6c
                           0x3'7867    0x32  Code  Gb  rfhal_rand.o [17]
RAILINT_90fcbbf40f88d8fb65bc21f04ada9649
                        0x2000'67cc     0x1  Data  Lc  rail_rf_hal.o [17]
RAILINT_9233b870e95026487fc0b7d1427ce6de
                           0x2'fe9d    0x90  Code  Gb  rail_rf_hal.o [17]
RAILINT_92498178254b8250fcc14592f55755e1
                        0x2000'67fa     0x1  Data  Gb  rfhal_pa.o [17]
RAILINT_92cc3a029311f34f4b370cf65514053e
                           0x3'631f    0x1e  Code  Gb  rfhal_pa.o [17]
RAILINT_92e546d46dc7e0449002e3ea23fbe49c
                        0x2000'67d8     0x4  Data  Lc  rail_rf_hal.o [17]
RAILINT_932ebbe98dac87fff3c95166dfd8c7c0
                           0x3'6291    0x10  Code  Gb  rfhal_pa.o [17]
RAILINT_933bfa2aa7cb94f384fd9482dc3d4942
                           0x3'4cfd    0x36  Code  Lc  generic_phy.o [17]
RAILINT_93e90587b91cd23310b71dbf4dabe4b2
                           0x3'6bd3    0x24  Code  Gb  rfhal_bufc.o [17]
RAILINT_93ff9f7864c62329282f1dfcb21c053a
                           0x2'fb33     0xc  Code  Gb  rfhal_module.o [17]
RAILINT_94b9ec57fc2c780d7481247a85e9f1dc
                           0x3'5343    0x2e  Code  Gb  generic_phy.o [17]
RAILINT_9803d96dc847fb8b66523b208d055d31
                           0x2'e8bb     0x4  Code  Lc  rail_singleprotocol.o [17]
RAILINT_9974938f06fdb65cddd048d862323ec1
                           0x3'731d    0x72  Code  Gb  rfhal_protimer.o [17]
RAILINT_999bd22c50df2f99ce048cba68f11c3a
                           0x3'0f45    0x18  Code  Gb  rail_assert.o [17]
RAILINT_9abb371cecd1acb6f4540a93e27c2b42
                           0x3'531b    0x28  Code  Gb  generic_phy.o [17]
RAILINT_9ddc548f8cc13ce471f7904212de4bec
                           0x3'ac5c     0x4  Data  Gb  generic_efr32xg21_seq.o [17]
RAILINT_9e5a39b656d2a45af0b472d761e7ae36
                           0x2'fb2d     0x2  Code  Gb  rfhal_module.o [17]
RAILINT_9ed13b22fb43a42cf6246a5504feed72
                           0x3'0287    0x10  Code  Gb  rail_rf_hal.o [17]
RAILINT_9ed9e325e3a81a164893a0e442b40e96
                           0x3'49ab    0x1c  Code  Gb  rail_ieee802154_rf_hal.o [17]
RAILINT_9fd746c1b0bdb9ddab1c3b0ce76b12dd
                           0x3'78c1    0x42  Code  Gb  rfhal_pti.o [17]
RAILINT_a02b12e9c2bb9c2eaabcbe30bdd2b3ab
                           0x3'70c1    0x22  Code  Gb  rfhal_protimer.o [17]
RAILINT_a0d7dfd1f5abb127627d188484fd5081
                           0x3'617b    0x3a  Code  Gb  rfhal_timings.o [17]
RAILINT_a154f20c4cb0ac49904161b332487077
                           0x3'69b9    0x3c  Code  Gb  rfhal_bufc.o [17]
RAILINT_a251f7a856caa576ae8912471cc9f388
                           0x3'752b     0x4  Code  Gb  rfhal_synth.o [17]
RAILINT_a2af2627994656fe0f42114c117379e9
                           0x3'4941    0x18  Code  Gb  rail_ieee802154_rf_hal.o [17]
RAILINT_a377bdc72f67299b91fadfda8820f257
                           0x3'47e7    0x18  Code  Gb  rfhal_ircal.o [17]
RAILINT_a3bef6a1689acfc8f4c844439ceb733c
                           0x3'74c1    0x16  Code  Gb  rfhal_protimer.o [17]
RAILINT_a3eadf0d43c66c908fc6ca41226d2d7f
                           0x3'02e9    0x48  Code  Gb  rail_rf_hal.o [17]
RAILINT_a6606cea071a8aecad4fccf2fa5c2f69
                           0x3'0d25     0x4  Code  Gb  rail_rf_hal.o [17]
RAILINT_a7edce70c9b1ddcd5d57d31ae701eb09
                           0x1'f89b    0xf0  Code  Gb  rail_rf.o [17]
RAILINT_a832a76ff1b3e11272f67b2940ef8b5b
                           0x3'773f     0x4  Code  Gb  rfhal_synth.o [17]
RAILINT_a9ffd85fdeaa19a8eaa79494d28ea023
                        0x2000'd520     0x4  Data  Gb  rfhal_protimer.o [17]
RAILINT_aa3c05ebae179e186de94de736a9d6c4
                        0x2000'67ff     0x1  Data  Lc  rfhal_pa.o [17]
RAILINT_aa7b882f5023851e2f6a935b3993ee64
                           0x1'f98b     0x4  Code  Gb  rail_rf.o [17]
RAILINT_aaca8a673d20a2e248f9bde5f069f726
                        0x2000'6c94     0x1  Data  Lc  generic_phy.o [17]
RAILINT_ab69c12a8bdde689baa3a5f9181b6b10
                           0x3'0d65     0xa  Code  Gb  rail_rf_hal.o [17]
RAILINT_ad3a6bd672748026e16a5bb7403323fc
                           0x3'0991     0x6  Code  Gb  rail_rf_hal.o [17]
RAILINT_ade6963bdef77a1bdead9e41e2150378
                        0x2000'6814     0x4  Data  Gb  rfhal_pa.o [17]
RAILINT_b091481120c5b69b64d1795bd186a53a
                           0x3'0297    0x52  Code  Gb  rail_rf_hal.o [17]
RAILINT_b1425e0dd9f617852c07a5d0b6e17c5c
                           0x3'49c7    0x38  Code  Gb  rail_ieee802154_rf_hal.o [17]
RAILINT_b1b6d07988c2bfe6ce227a4f89bd02b6
                           0x2'fb2f     0x2  Code  Gb  rfhal_module.o [17]
RAILINT_b1bc1368cb0ab6c3a512d68344391b7e
                           0x3'7c91    0x12  Code  Gb  rail_ble_rf_hal.o [17]
RAILINT_b1e77f194f470c9ac2259b55b3c9e45f
                           0x3'0ecf     0x6  Code  Gb  rail_rf_hal.o [17]
RAILINT_b3355dd6ee9e1b2cb5ce0f2ffeb54238
                           0x3'6897    0x2c  Code  Lc  rfhal_pa.o [17]
RAILINT_b3aa3eff54878500efb0b1716b033da6
                        0x2000'6780     0x4  Data  Lc  rail_rf.o [17]
RAILINT_b3ddfcbbe93448a1baca60a95ba1ebc8
                           0x3'6175     0x4  Code  Gb  rfhal_timings.o [17]
RAILINT_b5e0637c62bb3b836502f3f63757d920
                           0x2'edfd    0x1e  Code  Gb  rail_rx.o [17]
RAILINT_b5e47926bf1256766f9b2010b9ee6fe8
                           0x3'633d    0x36  Code  Lc  rfhal_pa.o [17]
RAILINT_b93ab48654395de4a0b4916cbe58c3f0
                        0x2000'689a     0x1  Data  Lc  rfhal_antenna.o [17]
RAILINT_ba152cac4b10bd46e775f61071b55a26
                           0x3'62a1    0x28  Code  Lc  rfhal_pa.o [17]
RAILINT_bbae20613830af1fea4487f4a528382e
                           0x3'7c4d    0x44  Code  Gb  seq_globals.o [17]
RAILINT_bdd7c430db042ad89171d8e803aae8e1
                        0x2000'6c00     0x2  Data  Lc  rfhal_bufc.o [17]
RAILINT_c2c512a3329b63216a276e6e941de4c7
                           0x3'6dc1    0x16  Code  Gb  rfhal_bufc.o [17]
RAILINT_c3a8f2115de33aa71c5b0c3927edb0bb
                        0x2000'd1a0     0x1  Data  Lc  rail_singleprotocol.o [17]
RAILINT_c45c978c1188641808a035a976143962
                           0x3'6373    0x56  Code  Lc  rfhal_pa.o [17]
RAILINT_c461f8567c8101e682e741c4291a293c
                           0x3'0879    0x30  Code  Lc  rail_rf_hal.o [17]
RAILINT_c5804fbffcb4bb00ba2d55e8180afacd
                           0x1'f7d9    0x14  Code  Gb  rail_rf.o [17]
RAILINT_c5c43894280e7e5d092359ee0e4a3bcb
                           0x3'72bd     0xa  Code  Gb  rfhal_protimer.o [17]
RAILINT_c60a4bdafc9dee1b27ed00cc7df68efb
                           0x3'974c    0x14  Data  Gb  ieee802154_efr32xg21_configurator_out.o [17]
RAILINT_c63395cdf8f385fcd305bf247e10d4d1
                           0x3'5e29    0x5e  Code  Gb  rfhal_radio.o [17]
RAILINT_c70aa1477a5ccb6549d4887be5eda9d7
                        0x2000'6ca0     0x4  Data  Lc  generic_phy.o [17]
RAILINT_c747432c9b643af743e2f17b7db602bf
                           0x3'4ddd    0x2a  Code  Lc  generic_phy.o [17]
RAILINT_c74a32ce9d9046472fb95f04500b8771
                           0x3'0af3    0x3e  Code  Gb  rail_rf_hal.o [17]
RAILINT_c82eb39c2cae1d9f30d639bbfeb8accb
                           0x3'7737     0x2  Code  Gb  rfhal_synth.o [17]
RAILINT_c943e87d8ae56dcac1081f203aa8ae88
                        0x2000'd454     0x4  Data  Lc  rail_rf_hal.o [17]
RAILINT_cad6497679d777c9c6cdcae65cea46ac
                           0x3'4dc7    0x16  Code  Lc  generic_phy.o [17]
RAILINT_cc007e4287f0aeed09681d7e13e3e8eb
                           0x3'5135    0x44  Code  Gb  generic_phy.o [17]
RAILINT_ccd514e4dbf9d02a98e4bcbe2ec29d6b
                           0x3'7421    0x32  Code  Gb  rfhal_protimer.o [17]
RAILINT_cdd58a3e55e8dd8d2fbbb62166e06b9f
                           0x3'47a1    0x24  Code  Gb  rfhal_ircal.o [17]
RAILINT_ce02a739082f36580275d98771e2a8d3
                           0x3'07b1     0x8  Code  Gb  rail_rf_hal.o [17]
RAILINT_ce0cca6435b4e9db157575e99b6a93a5
                           0x3'05cd    0x14  Code  Gb  rail_rf_hal.o [17]
RAILINT_d273fcd4fcfb054c8f1c46c2121d200c
                        0x2000'6810     0x4  Data  Lc  rfhal_pa.o [17]
RAILINT_d34baf40215a74cf3fc82b1a6bb40319
                           0x3'9674    0xc0  Data  Gb  ieee802154_efr32xg21_configurator_out.o [17]
RAILINT_d35281ed0be1417c2dec593697509661
                           0x3'5d65    0x78  Code  Gb  rfhal_radio.o [17]
RAILINT_d36178d195ebf16dc405b3d94462d8c7
                           0x3'726f     0xc  Code  Gb  rfhal_protimer.o [17]
RAILINT_d39008e19c6861097c64e8e16321af16
                           0x2'e9eb    0x1e  Code  Gb  rail_calibration.o [17]
RAILINT_d3c0c2d3ade213a236e690e8108ef52c
                           0x3'4a90     0x2  Data  Lc  rail_ieee802154_rf_hal.o [17]
RAILINT_d4473776f83cbc0e517010e932869722
                           0x3'48e9     0x6  Code  Gb  rail_ieee802154_rf_hal.o [17]
RAILINT_d4d3f20345046551073e85d6afba339a
                           0x3'7293    0x2a  Code  Gb  rfhal_protimer.o [17]
RAILINT_d570ba6cfe2ea336b4bd1f39e040fd89
                           0x3'5f34     0x8  Data  Lc  rfhal_radio.o [17]
RAILINT_d66029b8fbacab88f6ccd3e01268cdf4
                           0x3'6073    0x12  Code  Gb  rfhal_timings.o [17]
RAILINT_d69d1437b83d95bc293543a2ccf6bbd6
                           0x3'74e9    0x14  Code  Gb  rfhal_tempcal.o [17]
RAILINT_d8225403880a14f30ef8977fc0f7af06
                           0x2'e9a7    0x18  Code  Gb  rail_calibration.o [17]
RAILINT_d85fb759c83f6e350ace663af6f33b19
                           0x2'fe8d    0x10  Code  Gb  rail_rf_hal.o [17]
RAILINT_d88ca7a1f89f3301db427bfa8e5c47c8
                           0x3'51bb    0x2c  Code  Gb  generic_phy.o [17]
RAILINT_d8d3b90489b72dce55d2d56ba684a110
                           0x3'5fa5    0x80  Code  Gb  rfhal_timings.o [17]
RAILINT_da49c243f6171fcb42b58511d90c5722
                           0x2'fb31     0x2  Code  Gb  rfhal_module.o [17]
RAILINT_dc77da5f32d3a568fe32e5e886251c06
                        0x2000'680c     0x4  Data  Lc  rfhal_pa.o [17]
RAILINT_dcd2132659b3fec6d0a2a9ffbcb95240
                           0x3'5f3d    0x68  Code  Gb  rfhal_timings.o [17]
RAILINT_dda73866dbe0e13aec5e401c3931aad8
                        0x2000'6c04     0x4  Data  Gb  rfhal_bufc.o [17]
RAILINT_df1e7fd361000d39ee6a13d369c756ba
                           0x3'5931    0x6a  Code  Gb  generic_phy.o [17]
RAILINT_e0897ab09399e1165ab8996ccbe6a963
                           0x3'0535    0x24  Code  Gb  rail_rf_hal.o [17]
RAILINT_e0dfaecc04939a24e643c7a83fed51fa
                           0x1'f87d    0x1e  Code  Gb  rail_rf.o [17]
RAILINT_e179e0cd81ce6f553eab65f76ba8995f
                           0x3'728b     0x8  Code  Gb  rfhal_protimer.o [17]
RAILINT_e1b152b40e799f9ebf7071a91afb3afe
                           0x3'752f    0x26  Code  Gb  rfhal_synth.o [17]
RAILINT_e25ebd0345d4056b33f0f4fac6b1c90e
                           0x3'0dab     0x4  Code  Gb  rail_rf_hal.o [17]
RAILINT_e2f1a7653e2a24591e2de29d015af8e5
                        0x2000'67fd     0x1  Data  Gb  rfhal_pa.o [17]
RAILINT_e366140d5e351258f13fe0879613e236
                           0x3'08d3    0x16  Code  Lc  rail_rf_hal.o [17]
RAILINT_e36b7c2149b0a5f578057afe38466b6f
                           0x3'666f     0x6  Code  Gb  rfhal_pa.o [17]
RAILINT_e465fca5bd9b19f518b0d08aa82de4e4
                           0x3'6047     0xe  Code  Gb  rfhal_timings.o [17]
RAILINT_e5d0f904fed9e7727ad00d9e67f16448
                        0x2000'6c02     0x2  Data  Lc  rfhal_bufc.o [17]
RAILINT_e5f4ab5f9633a49f5f9f04c898d5be7a
                        0x2000'd7ef     0x1  Data  Gb  rfhal_protimer.o [17]
RAILINT_e5f98ee4df05ffeec0898fd3dfcac7ef
                           0x3'6c9d    0xec  Code  Gb  rfhal_bufc.o [17]
RAILINT_e60841ee3f2c9cb0db5a37721cc632e3
                        0x2000'd458     0x4  Data  Lc  rail_rf_hal.o [17]
RAILINT_e64a04f087c745dcf16586fb7e1717d9
                           0x3'590f    0x12  Code  Gb  generic_phy.o [17]
RAILINT_e807551074e2844564261027c60fcc1f
                           0x3'9734    0x18  Data  Gb  ieee802154_efr32xg21_configurator_out.o [17]
RAILINT_e84623f1874bcfec735b3782e060618b
                        0x2000'67c8     0x4  Data  Lc  rail_assert.o [17]
RAILINT_e89d7eb2c00ac15736a92a0731fafade
                        0x2000'd524     0x4  Data  Gb  rfhal_protimer.o [17]
RAILINT_ea701df21b15aeabbf4f1b9be517a6fb
                           0x3'6bf7    0x70  Code  Gb  rfhal_bufc.o [17]
RAILINT_eaa79dc94bf95ef0149860bb11b220a6
                        0x2000'6c92     0x1  Data  Lc  generic_phy.o [17]
RAILINT_eaf571e90e0b4741516c9fbb7fed2bfb
                           0x3'061f    0x5a  Code  Gb  rail_rf_hal.o [17]
RAILINT_eb32875d25dc287dc72705de762f8057
                           0x3'498f     0xc  Code  Gb  rail_ieee802154_rf_hal.o [17]
RAILINT_ebb466d0beee3d26d7e4c407a98ccb64
                        0x2000'67e0     0x4  Data  Lc  rail_rf_hal.o [17]
RAILINT_ec07d9c9f667e5f0f0c92724316cd5c6
                           0x3'76bd    0x78  Code  Gb  rfhal_synth.o [17]
RAILINT_ee328b192a18bb4569d7a778a9299c02
                           0x3'6df7   0x152  Code  Gb  rfhal_bufc.o [17]
RAILINT_efd5ba1781b6a3e788774f85cc2da38a
                           0x3'08ad    0x26  Code  Lc  rail_rf_hal.o [17]
RAILINT_f25fd8aecc8e9052c2b758de684f357b
                           0x3'73db     0xe  Code  Gb  rfhal_protimer.o [17]
RAILINT_f39281aa9751e327ca0a34d472351249
                           0x3'0281     0x6  Code  Gb  rail_rf_hal.o [17]
RAILINT_f455947efef06ce9009322421adff4b8
                           0x2'fb75    0x1a  Code  Lc  rail_rf_hal.o [17]
RAILINT_f455947efef06ce9009322421adff4b8
                           0x3'4d51    0x1a  Code  Lc  generic_phy.o [17]
RAILINT_f551015ab2ffb05d20a85b8041988e15
                        0x2000'67d4     0x4  Data  Lc  rail_rf_hal.o [17]
RAILINT_f5d04763af9c9c69bca278c1fb1e9fea
                           0x2'ff79    0x42  Code  Gb  rail_rf_hal.o [17]
RAILINT_f5e57f7db33b643d827c155e10988d10
                           0x3'730f     0xe  Code  Gb  rfhal_protimer.o [17]
RAILINT_f5ecd93914ec28a70c4f3a6619184fd2
                        0x2000'67fe     0x1  Data  Gb  rfhal_pa.o [17]
RAILINT_f6dece74f860a31866857e2ce04fd473
                        0x2000'6804     0x8  Data  Gb  rfhal_pa.o [17]
RAILINT_f831d5a89dba9f07ac54925b6630035a
                           0x3'0331    0x16  Code  Lc  rail_rf_hal.o [17]
RAILINT_f8b2636d9c96ec2caabc013c11980577
                           0x2'e8c7     0x4  Code  Lc  rail_singleprotocol.o [17]
RAILINT_f936e1e818b097fd5aef91a4bb4ed243
                        0x2000'6788     0x4  Data  Lc  rail_rf.o [17]
RAILINT_fa9a038b34dcea0e918a10c72eb32365
                           0x3'4a88     0x8  Data  Lc  rail_ieee802154_rf_hal.o [17]
RAILINT_faf49abd7aa1ee55ef368f927cc12312
                           0x3'7095    0x2c  Code  Gb  rfhal_protimer.o [17]
RAILINT_fb99dcd3d8f803f69ec874047a51e253
                           0x3'6025    0x22  Code  Lc  rfhal_timings.o [17]
RAILINT_fba63741bb147dec4868880dd5d9d63b
                           0x3'5c21    0xf8  Code  Gb  rfhal_radio.o [17]
RAILINT_fbc65abf6183e6fa112e695b9d8a024b
                           0x2'ffbb    0xe4  Code  Lc  rail_rf_hal.o [17]
RAILINT_fccf3507494fb38e49acf3fe4f785586
                           0x3'0d75    0x36  Code  Gb  rail_rf_hal.o [17]
RAILINT_fe0c81c4665d0d211919cf6f2dcdaa1d
                           0x3'648b    0xe4  Code  Lc  rfhal_pa.o [17]
RAILINT_fe39a20ab6b8c88555edffc1cf461b34
                        0x2000'67c4     0x4  Data  Lc  rail_assert.o [17]
RAILINT_fe6d4d333cf4dfaab3c4b214ea3e1fc4
                           0x3'6b0b    0x76  Code  Lc  rfhal_bufc.o [17]
RAILINT_fea48c6a0a5dcb75b3cd7e0e0188d110
                           0x3'70e3   0x18c  Code  Gb  rfhal_protimer.o [17]
RAILINT_fec111ae6546d8c16e58044c8f6d2b09
                           0x3'0eab    0x24  Code  Gb  rail_rf_hal.o [17]
RAILINT_fec1be47a8f79301e3b783ff78a1504c
                           0x3'4e2b   0x104  Code  Lc  generic_phy.o [17]
RAIL_ActiveHandle       0x2000'd1a4     0x4  Data  Gb  rail_singleprotocol.o [17]
RAIL_CalibrateTemp         0x2'ea13    0x18  Code  Gb  rail_calibration.o [17]
RAIL_CancelTimer           0x2'e8f9     0xe  Code  Gb  rail_singleprotocol.o [17]
RAIL_ConfigCal             0x2'ea2b    0x12  Code  Gb  rail_calibration.o [17]
RAIL_ConfigEvents          0x1'fa3d    0x1c  Code  Gb  rail_rf.o [17]
RAIL_ConfigRxOptions       0x2'edf5     0x8  Code  Gb  rail_rx.o [17]
RAIL_ConfigTxPower         0x2'ead3    0x26  Code  Gb  rail_tx.o [17]
RAIL_ConvertDbmToRaw       0x3'0f5d    0xc4  Code  Wk  pa_conversions_efr32.o [17]
RAIL_ConvertLqi            0x2'ed97     0x8  Code  Gb  rail_data.o [17]
RAIL_ConvertRawToDbm       0x3'4809    0xac  Code  Wk  pa_conversions_efr32.o [17]
RAIL_DefaultRxFifo      0x2000'd1ac   0x200  Data  Lc  rail_data.o [17]
RAIL_EnablePti             0x2'eee5     0x6  Code  Gb  rail_pti.o [17]
RAIL_GetPendingCal         0x2'ea09     0xa  Code  Gb  rail_calibration.o [17]
RAIL_GetRadioEntropy       0x2'e8af     0x8  Code  Gb  rail_singleprotocol.o [17]
RAIL_GetRadioState         0x2'e8a1     0x4  Code  Gb  rail_singleprotocol.o [17]
RAIL_GetRssi               0x2'e967    0x12  Code  Gb  rail_singleprotocol.o [17]
RAIL_GetRxPacketDetailsAlt
                           0x2'ed9f     0x8  Code  Gb  rail_data.o [17]
RAIL_GetRxPacketInfo       0x2'ed8f     0x8  Code  Gb  rail_data.o [17]
RAIL_GetSchedulerStatus
                           0x2'e899     0x4  Code  Gb  rail_singleprotocol.o [17]
RAIL_GetTime               0x3'7945     0x4  Code  Gb  rail_timer.o [17]
RAIL_GetTimer              0x2'e8e9     0xe  Code  Gb  rail_singleprotocol.o [17]
RAIL_GetTxPacketDetailsAlt
                           0x2'eb0f     0x8  Code  Gb  rail_tx.o [17]
RAIL_GetTxPowerConfig      0x2'eafd    0x12  Code  Gb  rail_tx.o [17]
RAIL_GetTxPowerCurve::powerCurves
                        0x2000'd3cc     0x8  Data  Lc  pa_conversions_efr32.o [17]
RAIL_GetTxPowerDbm         0x2'eaad    0x26  Code  Gb  rail_tx.o [17]
RAIL_IEEE802154_CalibrateIr2p4Ghz
                           0x2'ea41    0x16  Code  Gb  rail_calibration.o [17]
RAIL_IEEE802154_Config2p4GHzRadio
                           0x2'eb85     0xe  Code  Gb  rail_ieee802154.o [17]
RAIL_IEEE802154_Deinit     0x2'eb93    0x1e  Code  Gb  rail_ieee802154.o [17]
RAIL_IEEE802154_GetAddress
                           0x2'ecb5     0x6  Code  Gb  rail_ieee802154.o [17]
RAIL_IEEE802154_Init       0x2'eb21    0x64  Code  Gb  rail_ieee802154.o [17]
RAIL_IEEE802154_SetFramePending
                           0x2'eca7     0xe  Code  Gb  rail_ieee802154.o [17]
RAIL_IEEE802154_SetLongAddress
                           0x2'ec49    0x1e  Code  Gb  rail_ieee802154.o [17]
RAIL_IEEE802154_SetPanCoordinator
                           0x2'ec67    0x1e  Code  Gb  rail_ieee802154.o [17]
RAIL_IEEE802154_SetPanId
                           0x2'ec0d    0x1e  Code  Gb  rail_ieee802154.o [17]
RAIL_IEEE802154_SetPromiscuousMode
                           0x2'ec89    0x1e  Code  Gb  rail_ieee802154.o [17]
RAIL_IEEE802154_SetShortAddress
                           0x2'ec2b    0x1e  Code  Gb  rail_ieee802154.o [17]
RAIL_Idle                  0x2'e8a5     0x8  Code  Gb  rail_singleprotocol.o [17]
RAIL_Init                  0x2'e877    0x22  Code  Gb  rail_singleprotocol.o [17]
RAIL_InitTxPowerCurvesAlt
                           0x2'e4d1    0x1c  Code  Wk  pa_conversions_efr32.o [17]
RAIL_IsRxAutoAckPaused     0x2'eed7     0xe  Code  Gb  rail_autoack.o [17]
RAIL_PauseRxAutoAck        0x2'eec5    0x12  Code  Gb  rail_autoack.o [17]
RAIL_PeekRxPacket          0x2'eda7    0x20  Code  Gb  rail_data.o [17]
RAIL_SetCcaThreshold       0x2'ea65    0x12  Code  Gb  rail_tx.o [17]
RAIL_SetFreqOffset         0x1'fa59    0x10  Code  Gb  rail_rf.o [17]
RAIL_SetPtiProtocol        0x1'f7b9    0x20  Code  Gb  rail_rf.o [17]
RAIL_SetRxFifo             0x2'ed77    0x12  Code  Gb  rail_data.o [17]
RAIL_SetRxTransitions      0x1'fa2f     0xe  Code  Gb  rail_rf.o [17]
RAIL_SetTaskPriority       0x2'e89d     0x4  Code  Gb  rail_singleprotocol.o [17]
RAIL_SetTimer              0x2'e8cd    0x1c  Code  Gb  rail_singleprotocol.o [17]
RAIL_SetTxFifo             0x2'ed5b    0x14  Code  Gb  rail_data.o [17]
RAIL_SetTxPowerDbm         0x2'ea77    0x2c  Code  Gb  rail_tx.o [17]
RAIL_SetTxTransitions      0x1'f9e1     0xe  Code  Gb  rail_rf.o [17]
RAIL_StartCcaCsmaTx        0x2'e91f    0x14  Code  Gb  rail_singleprotocol.o [17]
RAIL_StartCcaLbtTx         0x2'e93b    0x14  Code  Gb  rail_singleprotocol.o [17]
RAIL_StartRx               0x2'e94f    0x12  Code  Gb  rail_singleprotocol.o [17]
RAIL_StartTx               0x2'e90d    0x12  Code  Gb  rail_singleprotocol.o [17]
RAIL_TxPowerCurvesVbat     0x3'9268    0x20  Data  Wk  pa_curves_efr32.o [17]
RAIL_UnlockModule          0x1'f70f     0x4  Code  Gb  rail_rf.o [17]
RAIL_VerifyTxPowerCurves
                           0x2'eaf9     0x4  Code  Gb  rail_tx.o [17]
RAIL_YieldRadio            0x2'e8ad     0x2  Code  Gb  rail_singleprotocol.o [17]
RAIL_piecewiseDataHpVbat
                           0x3'9288    0x44  Data  Lc  pa_curves_efr32.o [17]
RAIL_piecewiseDataLpVbat
                           0x3'9310    0x44  Data  Lc  pa_curves_efr32.o [17]
RAIL_piecewiseDataMpVbat
                           0x3'92cc    0x44  Data  Lc  pa_curves_efr32.o [17]
RESETHEAP$$Base         0x2000'0000           --   Gb  - Linker created -
RESETHEAP$$Limit        0x2000'3a7c           --   Gb  - Linker created -
RMU_ResetCauseClear        0x3'3bc9     0xa  Code  Gb  em_rmu.o [26]
RMU_ResetCauseGet          0x3'3bd3     0x6  Code  Gb  em_rmu.o [26]
RTCC_ChannelCCVGet         0x1'8187     0x2  Code  Lc  rtcdriver.o [26]
RTCC_ChannelCCVSet         0x1'8189     0x2  Code  Lc  rtcdriver.o [26]
RTCC_ChannelCompareValueGet
                           0x1'8167    0x10  Code  Lc  rtcdriver.o [26]
RTCC_ChannelCompareValueSet
                           0x1'8177    0x10  Code  Lc  rtcdriver.o [26]
RTCC_ChannelInit           0x2'd4b5    0x32  Code  Gb  em_rtcc.o [26]
RTCC_CounterGet            0x1'818b     0xe  Code  Lc  rtcdriver.o [26]
RTCC_IRQHandler            0x1'856b    0x6c  Code  Gb  rtcdriver.o [26]
RTCC_Init                  0x2'd4e7    0x60  Code  Gb  em_rtcc.o [26]
RTCC_IntClear              0x1'8199     0x8  Code  Lc  rtcdriver.o [26]
RTCC_IntDisable            0x1'81a1     0xe  Code  Lc  rtcdriver.o [26]
RTCC_IntEnable             0x1'81af     0xc  Code  Lc  rtcdriver.o [26]
RTCC_IntGetEnabled         0x1'81bb     0xc  Code  Lc  rtcdriver.o [26]
RTCC_SyncWait              0x1'81c7    0x12  Code  Lc  rtcdriver.o [26]
RTCC_SyncWait              0x2'd4a5    0x10  Code  Lc  em_rtcc.o [26]
RTCDRV_AllocateTimer       0x1'81d9    0x68  Code  Gb  rtcdriver.o [26]
RTCDRV_GetWallClockTicks64
                           0x1'8509    0x42  Code  Gb  rtcdriver.o [26]
RTCDRV_Init                0x1'8241    0x82  Code  Gb  rtcdriver.o [26]
RTCDRV_StartTimer          0x1'82c3   0x190  Code  Gb  rtcdriver.o [26]
RTCDRV_TicksToMsec         0x1'854b    0x20  Code  Gb  rtcdriver.o [26]
RTCDRV_TimeRemaining       0x1'8453    0xb6  Code  Gb  rtcdriver.o [26]
ReadServerTime               0xd89b     0x8  Code  Gb  time_sync.o [26]
ReadTimeAttributesResponseCallback
                             0xd737    0x74  Code  Gb  time_sync.o [26]
Region$$Table$$Base        0x3'b168           --   Gb  - Linker created -
Region$$Table$$Limit       0x3'b1a0           --   Gb  - Linker created -
Reset_Handler              0x3'7f03     0xe  Code  Wk  startup_efr32mg21.o [14]
SE_addDataInput            0x2'92fd    0x16  Code  Gb  em_se.o [26]
SE_addParameter            0x2'9313    0x14  Code  Gb  em_se.o [26]
SE_eraseUserData           0x2'93b3    0x26  Code  Gb  em_se.o [26]
SE_executeCommand          0x2'9327    0x3a  Code  Gb  em_se.o [26]
SE_isCommandCompleted      0x2'92d5     0xc  Code  Lc  em_se.o [26]
SE_readCommandResponse     0x2'92ed    0x10  Code  Lc  em_se.o [26]
SE_waitCommandCompletion
                           0x2'92e1     0xc  Code  Lc  em_se.o [26]
SE_writeUserData           0x2'9361    0x52  Code  Gb  em_se.o [26]
SIMEE$$Base                0xb'6000           --   Gb  - Linker created -
SIMEE$$Limit               0xb'e000           --   Gb  - Linker created -
SL_CTZ                       0x9a9d     0xa  Code  Lc  gpiointerrupt.o [26]
SYNTH_IRQHandler           0x3'58df     0xe  Code  Gb  generic_phy.o [17]
SYSTEM_ChipRevisionGet     0x2'e1e9    0x1a  Code  Gb  em_system.o [26]
SYSTEM_GetFlashPageSize
                           0x3'7d65    0x16  Code  Lc  nvm3_hal_flash.o [26]
SYSTEM_GetUnique           0x3'7d5d     0x8  Code  Lc  nvm3_hal_flash.o [26]
SysTick_Handler              0x621b    0x86  Code  Gb  dev_evt_pool.o [26]
SystemCLKIN0Get            0x2'b93d     0x4  Code  Gb  system_efr32mg21.o [14]
SystemCoreClock         0x2000'62fc     0x4  Data  Gb  system_efr32mg21.o [14]
SystemCoreClockGet         0x1'5b1d     0x4  Code  Lc  em_cmu.o [26]
SystemCoreClockUpdate      0x2'd989     0x4  Code  Lc  em_emu.o [26]
SystemFSRCOClockGet        0x2'b945     0x2  Code  Gb  system_efr32mg21.o [14]
SystemHCLKGet              0x2'b8fd    0x1a  Code  Gb  system_efr32mg21.o [14]
SystemHFRCODPLLClock    0x2000'62f4     0x4  Data  Lc  system_efr32mg21.o [14]
SystemHFRCODPLLClockGet
                           0x2'b937     0x6  Code  Gb  system_efr32mg21.o [14]
SystemHFRCOEM23ClockGet
                           0x2'b94b    0x62  Code  Gb  system_efr32mg21.o [14]
SystemHFXOClock         0x2000'62f0     0x4  Data  Lc  system_efr32mg21.o [14]
SystemHFXOClockGet         0x2'b91b     0x6  Code  Gb  system_efr32mg21.o [14]
SystemHFXOClockSet         0x2'b921    0x16  Code  Gb  system_efr32mg21.o [14]
SystemInit                 0x2'b8c9    0x12  Code  Gb  system_efr32mg21.o [14]
SystemLFRCOClockGet        0x2'b9ad     0x6  Code  Gb  system_efr32mg21.o [14]
SystemLFXOClock         0x2000'62f8     0x4  Data  Lc  system_efr32mg21.o [14]
SystemLFXOClockGet         0x2'b9b9     0x6  Code  Gb  system_efr32mg21.o [14]
SystemMaxCoreClockGet      0x2'b917     0x4  Code  Gb  system_efr32mg21.o [14]
SystemSYSCLKGet            0x2'b8db    0x22  Code  Gb  system_efr32mg21.o [14]
SystemULFRCOClockGet       0x2'b9b3     0x6  Code  Gb  system_efr32mg21.o [14]
TEMPDRV_GetTemp            0x2'e491    0x12  Code  Gb  tempdrv.o [26]
TEMPDRV_IRQHandler         0x2'e313    0x5e  Code  Gb  tempdrv.o [26]
TEMPDRV_Init               0x2'e44f    0x42  Code  Gb  tempdrv.o [26]
TEMPDRV_InitState       0x2000'd7eb     0x1  Data  Lc  tempdrv.o [26]
TIMER0_IRQHandler          0x1'8927    0x1e  Code  Gb  ustimer.o [26]
TIMER1_IRQHandler            0x62a1    0x26  Code  Gb  dev_evt_pool.o [26]
TIMER_CounterGet           0x1'87f9     0x4  Code  Lc  ustimer.o [26]
TIMER_Init                 0x2'd815    0xc0  Code  Gb  em_timer.o [26]
TIMER_InitCC               0x2'd8d5    0xa0  Code  Gb  em_timer.o [26]
TIMER_IntClear               0x5da7     0x8  Code  Lc  dev_evt_pool.o [26]
TIMER_IntClear             0x1'87fd     0x8  Code  Lc  ustimer.o [26]
TIMER_IntDisable           0x1'8805     0xa  Code  Lc  ustimer.o [26]
TIMER_IntGet                 0x5daf     0x4  Code  Lc  dev_evt_pool.o [26]
TIMER_IntGet               0x1'880f     0x4  Code  Lc  ustimer.o [26]
TIMER_MaxCount             0x1'87f3     0x6  Code  Lc  ustimer.o [26]
TIMER_TopSet               0x1'8813    0x10  Code  Lc  ustimer.o [26]
TIMER_Valid                0x2'd7a1    0x28  Code  Lc  em_timer.o [26]
TOKEN_ATTR16_10_DEFAULTS
                           0x3'ac80     0x2  Data  Gb  token-def.o [26]
TOKEN_ATTR16_11_DEFAULTS
                           0x3'ac82     0x2  Data  Gb  token-def.o [26]
TOKEN_ATTR16_12_DEFAULTS
                           0x3'ac84     0x2  Data  Gb  token-def.o [26]
TOKEN_ATTR16_13_DEFAULTS
                           0x3'ac86     0x2  Data  Gb  token-def.o [26]
TOKEN_ATTR16_14_DEFAULTS
                           0x3'ac88     0x2  Data  Gb  token-def.o [26]
TOKEN_ATTR16_15_DEFAULTS
                           0x3'ac8a     0x2  Data  Gb  token-def.o [26]
TOKEN_ATTR16_16_DEFAULTS
                           0x3'ac8c     0x2  Data  Gb  token-def.o [26]
TOKEN_ATTR16_1_DEFAULTS
                           0x3'ac6e     0x2  Data  Gb  token-def.o [26]
TOKEN_ATTR16_2_DEFAULTS
                           0x3'ac70     0x2  Data  Gb  token-def.o [26]
TOKEN_ATTR16_3_DEFAULTS
                           0x3'ac72     0x2  Data  Gb  token-def.o [26]
TOKEN_ATTR16_4_DEFAULTS
                           0x3'ac74     0x2  Data  Gb  token-def.o [26]
TOKEN_ATTR16_5_DEFAULTS
                           0x3'ac76     0x2  Data  Gb  token-def.o [26]
TOKEN_ATTR16_6_DEFAULTS
                           0x3'ac78     0x2  Data  Gb  token-def.o [26]
TOKEN_ATTR16_7_DEFAULTS
                           0x3'ac7a     0x2  Data  Gb  token-def.o [26]
TOKEN_ATTR16_8_DEFAULTS
                           0x3'ac7c     0x2  Data  Gb  token-def.o [26]
TOKEN_ATTR16_9_DEFAULTS
                           0x3'ac7e     0x2  Data  Gb  token-def.o [26]
TOKEN_ATTR32_10_DEFAULTS
                           0x3'8f54     0x4  Data  Gb  token-def.o [26]
TOKEN_ATTR32_11_DEFAULTS
                           0x3'8f58     0x4  Data  Gb  token-def.o [26]
TOKEN_ATTR32_12_DEFAULTS
                           0x3'8f5c     0x4  Data  Gb  token-def.o [26]
TOKEN_ATTR32_13_DEFAULTS
                           0x3'8f60     0x4  Data  Gb  token-def.o [26]
TOKEN_ATTR32_14_DEFAULTS
                           0x3'8f64     0x4  Data  Gb  token-def.o [26]
TOKEN_ATTR32_15_DEFAULTS
                           0x3'8f68     0x4  Data  Gb  token-def.o [26]
TOKEN_ATTR32_16_DEFAULTS
                           0x3'8f6c     0x4  Data  Gb  token-def.o [26]
TOKEN_ATTR32_1_DEFAULTS
                           0x3'8f30     0x4  Data  Gb  token-def.o [26]
TOKEN_ATTR32_2_DEFAULTS
                           0x3'8f34     0x4  Data  Gb  token-def.o [26]
TOKEN_ATTR32_3_DEFAULTS
                           0x3'8f38     0x4  Data  Gb  token-def.o [26]
TOKEN_ATTR32_4_DEFAULTS
                           0x3'8f3c     0x4  Data  Gb  token-def.o [26]
TOKEN_ATTR32_5_DEFAULTS
                           0x3'8f40     0x4  Data  Gb  token-def.o [26]
TOKEN_ATTR32_6_DEFAULTS
                           0x3'8f44     0x4  Data  Gb  token-def.o [26]
TOKEN_ATTR32_7_DEFAULTS
                           0x3'8f48     0x4  Data  Gb  token-def.o [26]
TOKEN_ATTR32_8_DEFAULTS
                           0x3'8f4c     0x4  Data  Gb  token-def.o [26]
TOKEN_ATTR32_9_DEFAULTS
                           0x3'8f50     0x4  Data  Gb  token-def.o [26]
TOKEN_ATTR48_1_DEFAULTS
                           0x3'8f70     0x8  Data  Gb  token-def.o [26]
TOKEN_ATTR48_2_DEFAULTS
                           0x3'8f78     0x8  Data  Gb  token-def.o [26]
TOKEN_ATTR48_3_DEFAULTS
                           0x3'8f80     0x8  Data  Gb  token-def.o [26]
TOKEN_ATTR48_4_DEFAULTS
                           0x3'8f88     0x8  Data  Gb  token-def.o [26]
TOKEN_ATTR48_5_DEFAULTS
                           0x3'8f90     0x8  Data  Gb  token-def.o [26]
TOKEN_ATTR48_6_DEFAULTS
                           0x3'8f98     0x8  Data  Gb  token-def.o [26]
TOKEN_ATTR48_7_DEFAULTS
                           0x3'8fa0     0x8  Data  Gb  token-def.o [26]
TOKEN_ATTR48_8_DEFAULTS
                           0x3'8fa8     0x8  Data  Gb  token-def.o [26]
TOKEN_ATTR8_10_DEFAULTS
                           0x3'aca2     0x1  Data  Gb  token-def.o [26]
TOKEN_ATTR8_11_DEFAULTS
                           0x3'aca3     0x1  Data  Gb  token-def.o [26]
TOKEN_ATTR8_12_DEFAULTS
                           0x3'aca4     0x1  Data  Gb  token-def.o [26]
TOKEN_ATTR8_13_DEFAULTS
                           0x3'aca5     0x1  Data  Gb  token-def.o [26]
TOKEN_ATTR8_14_DEFAULTS
                           0x3'aca6     0x1  Data  Gb  token-def.o [26]
TOKEN_ATTR8_15_DEFAULTS
                           0x3'aca7     0x1  Data  Gb  token-def.o [26]
TOKEN_ATTR8_16_DEFAULTS
                           0x3'aca8     0x1  Data  Gb  token-def.o [26]
TOKEN_ATTR8_1_DEFAULTS     0x3'ac99     0x1  Data  Gb  token-def.o [26]
TOKEN_ATTR8_2_DEFAULTS     0x3'ac9a     0x1  Data  Gb  token-def.o [26]
TOKEN_ATTR8_3_DEFAULTS     0x3'ac9b     0x1  Data  Gb  token-def.o [26]
TOKEN_ATTR8_4_DEFAULTS     0x3'ac9c     0x1  Data  Gb  token-def.o [26]
TOKEN_ATTR8_5_DEFAULTS     0x3'ac9d     0x1  Data  Gb  token-def.o [26]
TOKEN_ATTR8_6_DEFAULTS     0x3'ac9e     0x1  Data  Gb  token-def.o [26]
TOKEN_ATTR8_7_DEFAULTS     0x3'ac9f     0x1  Data  Gb  token-def.o [26]
TOKEN_ATTR8_8_DEFAULTS     0x3'aca0     0x1  Data  Gb  token-def.o [26]
TOKEN_ATTR8_9_DEFAULTS     0x3'aca1     0x1  Data  Gb  token-def.o [26]
TOKEN_ATTR_FLASH_DEFAULTS
                           0x3'8b40    0xfc  Data  Gb  token-def.o [26]
TOKEN_BLOCK_0_FLASH_DEFAULTS
                           0x3'8e34    0xfc  Data  Gb  token-def.o [26]
TOKEN_ECC_FLASH_DEFAULTS
                           0x3'8d38    0xfc  Data  Gb  token-def.o [26]
TOKEN_FIRST_RUN_FlAG_DEFAULTS
                           0x3'ac98     0x1  Data  Gb  token-def.o [26]
TOKEN_MFG_CCA_THRESHOLD
                           0x3'84d2     0x2  Data  Gb  mfg-token.o [26]
TOKEN_MFG_CTUNE            0x3'84d6     0x2  Data  Gb  mfg-token.o [26]
TOKEN_MFG_EUI_64           0x3'ac64     0x2  Data  Gb  mfg-token.o [26]
TOKEN_MFG_INSTALLATION_CODE
                           0x3'ac62     0x2  Data  Gb  mfg-token.o [26]
TOKEN_MFG_LIB_ENABLED_DEFAULTS
                           0x3'acaa     0x1  Data  Gb  token-def.o [26]
TOKEN_MFG_PHY_CONFIG       0x3'8432     0x2  Data  Gb  mfg-token.o [26]
TOKEN_MFG_SECURITY_CONFIG
                           0x3'ac60     0x2  Data  Gb  mfg-token.o [26]
TOKEN_MFG_SYNTH_FREQ_OFFSET
                           0x3'8436     0x2  Data  Gb  mfg-token.o [26]
TOKEN_MULTI_NETWORK_STACK_ALTERNATE_KEY_DEFAULTS
                           0x3'88b4    0x14  Data  Gb  token-def.o [26]
TOKEN_MULTI_NETWORK_STACK_KEYS_DEFAULTS
                           0x3'8890    0x14  Data  Gb  token-def.o [26]
TOKEN_MULTI_NETWORK_STACK_NETWORK_MANAGEMENT_DEFAULTS
                           0x3'88e4     0x8  Data  Gb  token-def.o [26]
TOKEN_MULTI_NETWORK_STACK_NODE_DATA_DEFAULTS
                           0x3'88a4    0x10  Data  Gb  token-def.o [26]
TOKEN_MULTI_NETWORK_STACK_NONCE_COUNTER_DEFAULTS
                           0x3'88f8     0x4  Data  Gb  token-def.o [26]
TOKEN_MULTI_NETWORK_STACK_PARENT_ADDITIONAL_INFO_DEFAULTS
                           0x3'ac6c     0x2  Data  Gb  token-def.o [26]
TOKEN_MULTI_NETWORK_STACK_PARENT_INFO_DEFAULTS
                           0x3'88ec     0xc  Data  Gb  token-def.o [26]
TOKEN_MULTI_NETWORK_STACK_TRUST_CENTER_DEFAULTS
                           0x3'88c8    0x1c  Data  Gb  token-def.o [26]
TOKEN_REPORT_TABLE_DEFAULTS
                           0x3'8fec    0x14  Data  Gb  token-def.o [26]
TOKEN_SCENES_NUM_ENTRIES_DEFAULTS
                           0x3'aca9     0x1  Data  Gb  token-def.o [26]
TOKEN_SCENES_TABLE_DEFAULTS
                           0x3'8fc0    0x2c  Data  Gb  token-def.o [26]
TOKEN_SDK_INFO_DEFAULTS
                           0x3'8fb0    0x10  Data  Gb  token-def.o [26]
TOKEN_SINGLETON_ATTR_FLASH_DEFAULTS
                           0x3'8a44    0xfc  Data  Gb  token-def.o [26]
TOKEN_STACK_ADDITIONAL_CHILD_DATA_DEFAULTS
                           0x3'ac97     0x1  Data  Gb  token-def.o [26]
TOKEN_STACK_ALTERNATE_KEY_DEFAULTS
                           0x3'8808    0x14  Data  Gb  token-def.o [26]
TOKEN_STACK_ANALYSIS_REBOOT_DEFAULTS
                           0x3'ac68     0x2  Data  Gb  token-def.o [26]
TOKEN_STACK_APS_FRAME_COUNTER_DEFAULTS
                           0x3'8804     0x4  Data  Gb  token-def.o [26]
TOKEN_STACK_BINDING_TABLE_DEFAULTS
                           0x3'88fc    0x10  Data  Gb  token-def.o [26]
TOKEN_STACK_BOOT_COUNTER_DEFAULTS
                           0x3'881c     0x4  Data  Gb  token-def.o [26]
TOKEN_STACK_CERTIFICATE_TABLE_DEFAULTS
                           0x3'8934    0x5c  Data  Gb  token-def.o [26]
TOKEN_STACK_CHILD_TABLE_DEFAULTS
                           0x3'890c     0xc  Data  Gb  token-def.o [26]
TOKEN_STACK_GP_DATA_DEFAULTS
                           0x3'89c8    0x14  Data  Gb  token-def.o [26]
TOKEN_STACK_GP_INCOMING_FC_DEFAULTS
                           0x3'8a40     0x4  Data  Gb  token-def.o [26]
TOKEN_STACK_GP_PROXY_TABLE_DEFAULTS
                           0x3'89dc    0x34  Data  Gb  token-def.o [26]
TOKEN_STACK_GP_SINK_TABLE_DEFAULTS
                           0x3'8a10    0x30  Data  Gb  token-def.o [26]
TOKEN_STACK_KEYS_DEFAULTS
                           0x3'8824    0x14  Data  Gb  token-def.o [26]
TOKEN_STACK_KEY_TABLE_DEFAULTS
                           0x3'8918    0x1c  Data  Gb  token-def.o [26]
TOKEN_STACK_MIN_RECEIVED_RSSI_DEFAULTS
                           0x3'ac96     0x1  Data  Gb  token-def.o [26]
TOKEN_STACK_MULTI_PHY_NWK_INFO_DEFAULTS
                           0x3'8878    0x18  Data  Gb  token-def.o [26]
TOKEN_STACK_NETWORK_MANAGEMENT_DEFAULTS
                           0x3'8864     0x8  Data  Gb  token-def.o [26]
TOKEN_STACK_NODE_DATA_DEFAULTS
                           0x3'8838    0x10  Data  Gb  token-def.o [26]
TOKEN_STACK_NONCE_COUNTER_DEFAULTS
                           0x3'8820     0x4  Data  Gb  token-def.o [26]
TOKEN_STACK_NVDATA_VERSION_DEFAULTS
                           0x3'ac66     0x2  Data  Gb  token-def.o [26]
TOKEN_STACK_PARENT_ADDITIONAL_INFO_DEFAULTS
                           0x3'ac6a     0x2  Data  Gb  token-def.o [26]
TOKEN_STACK_PARENT_INFO_DEFAULTS
                           0x3'886c     0xc  Data  Gb  token-def.o [26]
TOKEN_STACK_TRUST_CENTER_DEFAULTS
                           0x3'8848    0x1c  Data  Gb  token-def.o [26]
TOKEN_STACK_ZLL_DATA_DEFAULTS
                           0x3'8990    0x10  Data  Gb  token-def.o [26]
TOKEN_STACK_ZLL_SECURITY_DEFAULTS
                           0x3'89a0    0x28  Data  Gb  token-def.o [26]
TOKEN_USER_FLASH_DEFAULTS
                           0x3'8c3c    0xfc  Data  Gb  token-def.o [26]
TimeSyncPeriod          0x2000'605c     0x4  Data  Lc  time_sync.o [26]
Time_Source_endpoint    0x2000'681c     0x1  Data  Gb  time_sync.o [26]
USART0_RX_IRQHandler         0x4bc9    0x18  Code  Gb  hal_uart_api.o [26]
USART1_RX_IRQHandler         0x4c05    0x18  Code  Gb  hal_uart_api.o [26]
USART_BaudrateAsyncSet       0x8d91    0x5e  Code  Gb  em_usart.o [26]
USART_Enable                 0x8def    0x24  Code  Gb  em_usart.o [26]
USART_InitAsync              0x8e13    0xec  Code  Gb  em_usart.o [26]
USART_IntClear               0x48e9     0x8  Code  Lc  hal_uart_api.o [26]
USART_IntDisable             0x48f1     0xa  Code  Lc  hal_uart_api.o [26]
USART_IntEnable              0x48fb     0x8  Code  Lc  hal_uart_api.o [26]
USART_Reset                  0x8eff    0x60  Code  Gb  em_usart.o [26]
USART_Rx                     0x8f81     0xc  Code  Gb  em_usart.o [26]
USART_Tx                     0x8f8d     0xa  Code  Gb  em_usart.o [26]
USTIMER_DelayIntSafe       0x1'88db    0x4c  Code  Gb  ustimer.o [26]
USTIMER_Init               0x1'8825    0xb6  Code  Gb  ustimer.o [26]
WDOG0_IRQHandler           0x1'3d95     0x4  Code  Gb  micro-common.o [26]
WDOGn_Enable               0x1'5849    0x24  Code  Gb  em_wdog.o [26]
WDOGn_Feed                 0x1'586d    0x22  Code  Gb  em_wdog.o [26]
WDOGn_Feed_OK_waitting     0x1'588f     0xa  Code  Gb  em_wdog.o [26]
WDOGn_Init                 0x1'589d    0x8c  Code  Gb  em_wdog.o [26]
WDOGn_IntClear             0x1'3d7d     0x8  Code  Lc  micro-common.o [26]
WDOGn_IntEnable            0x1'3d85     0x8  Code  Lc  micro-common.o [26]
WDOGn_IsEnabled            0x1'3d8d     0x8  Code  Lc  micro-common.o [26]
WDOGn_Lock                 0x1'5929     0x6  Code  Gb  em_wdog.o [26]
WriteServerTime              0xd8a3     0x6  Code  Gb  time_sync.o [26]
XYcZ_add                   0x2'9edf    0xe8  Code  Lc  uECC.o [26]
_LitobSmallNoMb            0x2'b1db    0xce  Code  Lc  xprintfsmall_nomb.o [11]
_PrintfSmallNoMb           0x2'ae1d   0x3b2  Code  Gb  xprintfsmall_nomb.o [11]
_PutcharSmallNoMb          0x2'b2a9    0x20  Code  Lc  xprintfsmall_nomb.o [11]
_PutcharsSmallNoMb         0x2'b2c9    0x2e  Code  Lc  xprintfsmall_nomb.o [11]
_SNProut                   0x3'33ff    0x1a  Code  Gb  xsnprout.o [11]
_SProut                    0x3'313f     0xa  Code  Gb  xsprout.o [11]
__IdentifyClusterServer
                           0x3'83e4     0x8  Data  Gb  silicon_lab_modify.o [26]
__NVIC_ClearPendingIRQ       0x4fe9    0x18  Code  Lc  dev_gpio.o [26]
__NVIC_ClearPendingIRQ       0x4891    0x18  Code  Lc  hal_uart_api.o [26]
__NVIC_ClearPendingIRQ       0x9a77    0x16  Code  Lc  gpiointerrupt.o [26]
__NVIC_ClearPendingIRQ     0x1'3d67    0x16  Code  Lc  micro-common.o [26]
__NVIC_ClearPendingIRQ     0x1'814d    0x18  Code  Lc  rtcdriver.o [26]
__NVIC_ClearPendingIRQ     0x1'87db    0x16  Code  Lc  ustimer.o [26]
__NVIC_ClearPendingIRQ     0x2'e2d5    0x18  Code  Lc  tempdrv.o [26]
__NVIC_ClearPendingIRQ     0x3'6fa1    0x18  Code  Lc  rfhal_protimer.o [17]
__NVIC_DisableIRQ            0x4fc9    0x20  Code  Lc  dev_gpio.o [26]
__NVIC_DisableIRQ          0x3'4cdd    0x20  Code  Lc  generic_phy.o [17]
__NVIC_EnableIRQ             0x4879    0x18  Code  Lc  hal_uart_api.o [26]
__NVIC_EnableIRQ             0x9a61    0x16  Code  Lc  gpiointerrupt.o [26]
__NVIC_EnableIRQ           0x1'3d51    0x16  Code  Lc  micro-common.o [26]
__NVIC_EnableIRQ           0x1'8135    0x18  Code  Lc  rtcdriver.o [26]
__NVIC_EnableIRQ           0x1'87c5    0x16  Code  Lc  ustimer.o [26]
__NVIC_EnableIRQ           0x2'e2bd    0x18  Code  Lc  tempdrv.o [26]
__NVIC_EnableIRQ           0x3'4cc5    0x18  Code  Lc  generic_phy.o [17]
__NVIC_GetEnableIRQ        0x1'89a5    0x1e  Code  Lc  sleep-efm32.o [26]
__NVIC_GetPendingIRQ       0x1'89c3    0x1e  Code  Lc  sleep-efm32.o [26]
__NVIC_SetPriority           0x5d89    0x1e  Code  Lc  dev_evt_pool.o [26]
__NVIC_SetPriority           0x48a9    0x1e  Code  Lc  hal_uart_api.o [26]
__NVIC_SetPriority         0x1'a8fb    0x1e  Code  Lc  micro.o [26]
__NVIC_SetPriorityGrouping
                           0x1'a8dd    0x1e  Code  Lc  micro.o [26]
__NVIC_SystemReset           0x62f5    0x1e  Code  Lc  network_manager.o [26]
__NVIC_SystemReset           0x72d1    0x1e  Code  Lc  zigbee_sdk_core.o [26]
__NVIC_SystemReset         0x1'11e9    0x1e  Code  Lc  mf_test.o [26]
__aeabi_ldiv0              0x3'4755          Code  Gb  I64DivZer.o [22]
__aeabi_llsl               0x3'33dd          Code  Gb  I64Shl.o [22]
__aeabi_memclr             0x3'7ca5          Code  Gb  ABImemclr.o [22]
__aeabi_memclr4            0x2'd481          Code  Gb  ABImemclr4.o [22]
__aeabi_memset               0x4ee9          Code  Gb  ABImemset.o [22]
__aeabi_memset4              0xaf0d          Code  Gb  ABImemset48.o [22]
__aeabi_memset8              0xaf0d          Code  Gb  ABImemset48.o [22]
__aeabi_uldivmod           0x2'd55d          Code  Gb  I64DivMod.o [22]
__attr_transfer              0xa5a9    0x9c  Code  Lc  create_zigbee_dev.o [26]
__attrx_token_load           0x9bc7    0x8c  Code  Lc  create_zigbee_dev.o [26]
__cluster_transfer           0xa645    0xc6  Code  Lc  create_zigbee_dev.o [26]
__cmain                    0x3'7ea9          Code  Gb  cmain.o [22]
__data_GetMemChunk         0x2'9439    0x2c  Code  Gb  xgetmemchunk.o [11]
__data_GetMemChunk::start
                        0x2000'd798     0x4  Data  Lc  xgetmemchunk.o [11]
__emberAfFuncArrayGroupsClusterServer
                             0xaecc     0x4  Data  Gb  create_zigbee_dev.o [26]
__emberAfFuncArrayOtaBootloadClusterClient
                             0xaed4     0x8  Data  Gb  create_zigbee_dev.o [26]
__emberAfFuncArrayScenesClusterServer
                             0xaed0     0x4  Data  Gb  create_zigbee_dev.o [26]
__exit                     0x3'3bbd          Code  Gb  XXexit.o [22]
__first_run_over             0x9bb1    0x16  Code  Lc  create_zigbee_dev.o [26]
__get_battery_attr_info
                             0x8a6b    0x50  Code  Lc  hal_battery.o [26]
__get_first_run_flag         0x9b91    0x20  Code  Lc  create_zigbee_dev.o [26]
__get_next_time              0xd1af   0x17a  Code  Gb  dev_common_utils.o [26]
__iar_Fail_s               0x3'3c59    0x1c  Code  Gb  xfail_s.o [11]
__iar_Memchr               0x3'3c99          Code  Gb  memchr.o [22]
__iar_Memset                 0x4ee9          Code  Gb  ABImemset.o [22]
__iar_Memset4_word           0xaf15          Code  Gb  ABImemset48.o [22]
__iar_Memset8_word           0xaf15          Code  Gb  ABImemset48.o [22]
__iar_Memset_word            0x4ef1          Code  Gb  ABImemset.o [22]
__iar_Strchr               0x3'3c41          Code  Gb  strchr.o [22]
__iar_data_init3           0x3'7ecd    0x28  Code  Gb  data_init.o [22]
__iar_dlfree               0x1'3307   0x51e  Code  Gb  dlmalloc.o [11]
__iar_dlmalloc             0x1'2419   0xeee  Code  Gb  dlmalloc.o [11]
__iar_init_vfp             0x3'7e85          Code  Gb  fpinit_M.o [18]
__iar_lz77_init_single3
                           0x3'7f21    0x78  Code  Gb  lz77_init_single.o [22]
__iar_program_start        0x3'7f11          Code  Gb  cstartup_M.o [22]
__iar_unaligned_memcmp     0x1'38e5          Code  Gb  memcmp_unaligned.o [22]
__iar_unaligned_memcpy       0x4f51          Code  Gb  ABImemcpy_unaligned.o [22]
__iar_unaligned_memcpy4
                             0x4f71          Code  Gb  ABImemcpy_unaligned.o [22]
__iar_unaligned_memcpy8
                             0x4f71          Code  Gb  ABImemcpy_unaligned.o [22]
__iar_zero_init3           0x3'39df    0x3a  Code  Gb  zero_init3.o [22]
__load_all_attr_from_fast_token
                             0x9c53   0x23e  Code  Gb  create_zigbee_dev.o [26]
__load_all_attr_from_token
                             0xab3d    0x54  Code  Gb  create_zigbee_dev.o [26]
__low_level_init           0x3'7ec7     0x4  Code  Gb  low_level_init.o [11]
__save_all_attr_to_token
                             0xaaf9    0x40  Code  Gb  create_zigbee_dev.o [26]
__save_all_to_fast_token
                             0x9e91   0x2b8  Code  Gb  create_zigbee_dev.o [26]
__save_attr_to_fast_token
                             0xa1e7   0x37c  Code  Gb  create_zigbee_dev.o [26]
__save_fast_token_base       0xa14d    0x9a  Code  Gb  create_zigbee_dev.o [26]
__set_battery_attr_info
                             0x8abb    0x44  Code  Lc  hal_battery.o [26]
__vector_table               0x4200   0x134  Data  Gb  startup_efr32mg21.o [14]
_call_main                 0x3'7eb5          Code  Gb  cmain.o [22]
_exit                      0x3'7ef9          Code  Gb  cexit.o [22]
_gm_                    0x2000'd5c0   0x1d8  Data  Lc  dlmalloc.o [11]
_main                      0x3'7ec3          Code  Gb  cmain.o [22]
abort                      0x2'9431     0x6  Code  Gb  abort.o [11]
adc0_init                  0x1'593b    0x2c  Code  Lc  hal_adc.o [26]
addCandidate               0x1'f161    0x4e  Code  Lc  form-and-join.o [26]
addDelay                0x2000'd7a6     0x2  Data  Lc  network.o [27]
addEntryToGroupTable       0x1'd31f    0x7c  Code  Lc  groups-server.o [26]
addInterpanLayersToBuffer
                           0x3'2bcf    0x4c  Code  Lc  zll-interpan.o [29]
addPanIdCandidate            0xe881    0x50  Code  Lc  network-steering.o [26]
addPartialWrite            0x2'a85b    0x32  Code  Lc  eeprom.o [26]
addToApplicationQueue      0x2'1289    0x32  Code  Lc  network.o [27]
addressCacheSize        0x2000'a865     0x1  Data  Gb  security-address-cache.o [26]
addressCacheStartIndex  0x2000'a866     0x1  Data  Lc  security-address-cache.o [26]
addressIndexIsActive       0x2'3a3d    0x2c  Code  Lc  aps-retry.o [27]
addressMatchingEnabled  0x2000'6587     0x1  Data  Lc  phy.o [27]
afDeviceEnabled         0x2000'b780     0xc  Data  Gb  util.o [26]
afNoSecurityForDefaultResponse
                        0x2000'b7ac     0x1  Data  Lc  util.o [26]
age                     0x2000'c09d     0x1  Data  Lc  broadcast.o [27]
ageChildren                0x2'26a1    0xb2  Code  Lc  child-aging.o [27]
alarm_info              0x2000'6ca4    0x10  Data  Gb  app_common.o [1]
allowIdling             0x2000'd7c0     0x1  Data  Lc  event-control.o [27]
amTouchlinkInitiator    0x2000'ae3a     0x1  Data  Lc  zll-api.o [29]
appProperties              0x3'9374    0x40  Data  Gb  bootloader-interface.o [26]
appResponseData         0x2000'b870    0x54  Data  Gb  message.o [26]
appResponseLength       0x2000'b862     0x2  Data  Gb  message.o [26]
app_server_cluster_list
                           0x3'8128    0x18  Data  Gb  device_register.o [1]
app_timer_evt_handle         0xd32d     0x2  Code  Lc  dev_common_utils.o [26]
app_timer_handle             0xd32f   0x18c  Code  Gb  dev_common_utils.o [26]
app_version_first_report_handle
                             0x6c8d    0xb6  Code  Lc  network_manager.o [26]
app_version_first_report_handle::max_try_times
                        0x2000'6850     0x1  Data  Lc  network_manager.o [26]
app_version_report_handle
                             0x6c71    0x1c  Code  Lc  network_manager.o [26]
applicationProcessIncomingData
                           0x1'e93b   0x1b0  Code  Lc  application-support.o [27]
apply_z                    0x2'9ea1    0x3e  Code  Lc  uECC.o [26]
apsCommandBaseSizes        0x2'fa7c    0x14  Data  Lc  packet-validate.o [21]
apsCommandPacketIsValid
                           0x2'f9b9    0x44  Code  Lc  packet-validate.o [21]
apsPacketIsValid           0x2'f949    0x66  Code  Lc  packet-validate.o [21]
askServerToRunUpgrade        0xf9d3    0x36  Code  Lc  ota-client.o [26]
attr_location                0xaa15    0xe4  Code  Gb  create_zigbee_dev.o [26]
attributeData           0x2000'ad6c     0x4  Data  Gb  attribute-storage.o [26]
attributeManufacturerCodeCount
                        0x2000'ad7c     0x2  Data  Gb  attribute-storage.o [26]
attributeManufacturerCodes
                        0x2000'ad80     0x4  Data  Gb  attribute-storage.o [26]
attributeSizes             0x3'8478    0x30  Data  Lc  attribute-size.o [26]
auth_key_flash_data_read_ext
                           0x1'3b01    0x1e  Code  Gb  ecc_use.o [26]
auth_key_flash_data_write_ext
                           0x1'3af1    0x10  Code  Gb  ecc_use.o [26]
autoAckEnabled          0x2000'6588     0x1  Data  Lc  phy.o [27]
avgParentRssi           0x2000'adfe     0x2  Data  Gb  association.o [27]
baseHeaderLength           0x2'64bc    0x10  Data  Lc  packet-header.o [27]
basic_default_value        0x3'845c     0xc  Data  Gb  zigbee_dev_template.o [26]
battery_report_handle        0x8915    0x4c  Code  Gb  hal_battery.o [26]
bdbTcLinkKeyExchangeAttempts
                        0x2000'd7d7     0x1  Data  Lc  aps-keys.o [23]
bdbTcLinkKeyExchangeAttemptsMax
                        0x2000'6879     0x1  Data  Lc  aps-keys.o [23]
beaconPriority             0x1'7275    0xd0  Code  Lc  association.o [27]
beaconRequesterEui      0x2000'ae0c     0x8  Data  Gb  association.o [27]
beaconSuperframe           0x2'cab3    0x1e  Code  Lc  command.o [27]
beacon_sleep_interval_handle
                             0x95ad    0x30  Code  Gb  zigbee_sdk_end_device_handle.o [26]
bindingGroupMatch          0x1'd70d    0x2a  Code  Lc  groups-server.o [26]
bits2int                   0x2'a013    0x9c  Code  Lc  uECC.o [26]
blacklistedIdBytes      0x2000'd7dc     0x1  Data  Lc  random-id.o [27]
blacklistedIds          0x2000'6883     0x1  Data  Lc  random-id.o [27]
ble_LR_DSA_125kb_timing
                           0x3'941c     0xc  Data  Gb  rail_ble_rf_hal.o [17]
ble_LR_DSA_500kb_timing
                           0x3'9428     0xc  Data  Gb  rail_ble_rf_hal.o [17]
bootloadStateToExternalState
                             0xfd58     0xc  Data  Lc  ota-client.o [26]
bootloaderIsCommonBootloader
                           0x2'eeed     0x4  Code  Lc  bootloader-interface-app.o [26]
bootloaderValidationContext
                        0x2000'd008   0x180  Data  Gb  bootloader-interface-app.o [26]
bootloader_deinit          0x3'4ad9    0x36  Code  Gb  btl_interface.o [26]
bootloader_init            0x3'4aa3    0x36  Code  Gb  btl_interface.o [26]
bootloader_pointerValid
                           0x3'4a99     0xa  Code  Lc  btl_interface.o [26]
broadcastMessageSent       0x2'392d   0x102  Code  Lc  aps-retry.o [27]
broadcastPermitJoin        0x1'b3eb    0x24  Code  Lc  af-main-common.o [26]
brokenRouteErrorCode    0x2000'6881     0x1  Data  Lc  network.o [27]
cacheBuffer             0x2000'688c     0x1  Data  Lc  token-cache.o [27]
cacheUpdateCallback        0x1'9f63    0x12  Code  Lc  nvm3.o [16]
cachedImageId           0x2000'bf14    0x10  Data  Lc  ota-storage-simple.o [26]
cachedImageSize         0x2000'bf28     0x4  Data  Lc  ota-storage-simple.o [26]
cachingNetworkIndex     0x2000'688d     0x1  Data  Lc  token-cache.o [27]
calCRC32                   0x1'1c95    0x2c  Code  Lc  mf_test.o [26]
calculateSlotAndEepromOffsets
                           0x1'd115     0x2  Code  Gb  ota-storage-eeprom.o [26]
calculateTimer               0xfcef    0x1e  Code  Lc  ota-client.o [26]
calibration                0x2'e44d     0x2  Code  Lc  tempdrv.o [26]
callMessageSentHandlerForSleepyBroadcast
                           0x3'1a1b    0x46  Code  Lc  jit.o [27]
callbackEnd                  0xb1e3     0x8  Code  Gb  system-timer.o [14]
cfgEraseCnt             0x2000'cb20     0x4  Data  Lc  nvm3.o [16]
changeDynamicEvents        0x1'c165    0x3c  Code  Lc  phy.o [27]
changeToChannel         0x2000'c070     0x1  Data  Lc  zdo-channel.o [27]
channelCache            0x2000'bf01     0x1  Data  Lc  form-and-join.o [26]
channelCache            0x2000'bf67     0x1  Data  Lc  scan.o [27]
channelMaskCache        0x2000'bf08     0x4  Data  Lc  form-and-join.o [26]
checkAddressConflict       0x3'1d09    0x26  Code  Lc  route-discovery.o [27]
checkAllTimers             0x1'85d7    0xe4  Code  Lc  rtcdriver.o [26]
checkDelay                 0x2'829d    0x26  Code  Lc  ota-storage-eeprom-page-erase.o [26]
checkForMovedChild         0x2'0a5d    0x22  Code  Lc  network.o [27]
checkForPreceedingPartialWrite
                           0x2'a829    0x32  Code  Lc  eeprom.o [26]
checkInterpanFrameFormat
                           0x3'261b    0x8c  Code  Lc  zll-interpan.o [29]
checkMaybeGenerateNetworkParams
                           0x2'1455    0x44  Code  Lc  zll-api.o [29]
checkMaybeSetParentToken
                           0x1'7d0b    0x32  Code  Lc  association.o [27]
checkValuesMaybeGetRandom
                           0x2'1427    0x2e  Code  Lc  zll-api.o [29]
childIsExpectingMessageBitField
                        0x2000'6af0     0x8  Data  Lc  mac-indirect.o [27]
childJitMessage            0x3'197d    0x9e  Code  Lc  jit.o [27]
childPolledBitField     0x2000'6ae8     0x8  Data  Lc  mac-indirect.o [27]
cleanupActiveScanProcedure
                           0x2'5fed    0x14  Code  Gb  scan.o [27]
cleanupAndStop               0xec75    0x1c  Code  Lc  network-steering.o [26]
cleanupScanProcedure       0x2'6001    0x12  Code  Gb  scan.o [27]
clearCachedId              0x2'7ae5     0xa  Code  Lc  ota-storage-simple.o [26]
clearNetworkSecurityFromMessage
                           0x1'6b39    0x28  Code  Lc  association.o [27]
clearNonZllNetworkBit   0x2000'6826     0x1  Data  Lc  zll-api.o [29]
clearPanIdCandidates         0xe8d1    0x14  Code  Lc  network-steering.o [26]
clearPartialWrite          0x2'a813    0x16  Code  Lc  eeprom.o [26]
close_uart0                  0x4e41    0x16  Code  Lc  hal_uart_api.o [26]
clusterManufacturerCodeCount
                        0x2000'ad74     0x2  Data  Gb  attribute-storage.o [26]
clusterManufacturerCodes
                        0x2000'ad78     0x4  Data  Gb  attribute-storage.o [26]
clusterTickWrapper         0x1'ca6d    0x20  Code  Lc  af-event.o [26]
cluster_func_struct_init
                             0xc1c1    0x36  Code  Gb  silicon_lab_modify.o [26]
commandParse                 0xf31d   0x130  Code  Lc  ota-client.o [26]
commissioningJoinType   0x2000'ae3b     0x1  Data  Lc  zll-api.o [29]
commissioningNodeId     0x2000'ae48     0x2  Data  Lc  zll-api.o [29]
commissioningState      0x2000'bac0     0xc  Data  Lc  green-power-client.o [26]
commissioningUnencryptedNetworkKey
                        0x2000'ae28    0x10  Data  Lc  zll-api.o [29]
commissioningZllNetwork
                        0x2000'ae74    0x2c  Data  Lc  zll-api.o [29]
computeStringHash          0x1'd7a9    0x22  Code  Lc  reporting.o [26]
configPa::curPaConfig   0x2000'6ac4     0x4  Data  Lc  phy.o [27]
configureReceivedAttribute
                           0x1'de51    0xf8  Code  Lc  reporting.o [26]
continueImageDownload        0xf841    0x70  Code  Lc  ota-client.o [26]
continueImageVerification
                             0xf91d    0xb6  Code  Lc  ota-client.o [26]
continueScanRequest        0x2'2f85    0x5a  Code  Lc  zdo-channel.o [27]
convertMscStatusToNvm3Status
                           0x3'7d7b    0x18  Code  Lc  nvm3_hal_flash.o [26]
convertToTemp              0x2'e371     0x6  Code  Lc  tempdrv.o [26]
copyAllTokens              0x2'c6c9    0x6a  Code  Lc  token-cache.o [27]
count                   0x2000'bcf6     0x1  Data  Lc  scan-dispatch.o [26]
countSuperRetriesForMacDataPoll
                        0x2000'bfad     0x1  Data  Lc  network.o [27]
counterHasNewBase          0x1'9c5d    0x32  Code  Lc  nvm3.o [16]
counterIdxToAdr            0x1'9b6d    0x52  Code  Lc  nvm3.o [16]
counterIncFldGet           0x1'9bcf    0x3e  Code  Lc  nvm3.o [16]
counterIncFldSet           0x1'9c0d    0x50  Code  Lc  nvm3.o [16]
counterIsValidNewBase      0x1'9c8f    0x92  Code  Lc  nvm3.o [16]
counterUpdateBase          0x1'9de7    0x6a  Code  Lc  nvm3.o [16]
create_queue               0x1'382d    0x38  Code  Gb  dev_queue.o [26]
cryptInternal              0x2'f34b   0x304  Code  Lc  aps-encryption.o [23]
cryptoStatus            0x2000'd7ca     0x1  Data  Lc  crypto-state.o [26]
csmaTransmit               0x2'23e3    0x3e  Code  Gb  lower-mac-efr32.o [27]
cstackMemory            0x2000'5558   0x960  Data  Gb  cstartup-common.o [26]
curCmd                  0x2000'b78c    0x20  Data  Gb  util.o [26]
currentBootloadState    0x2000'ad84     0x1  Data  Lc  ota-client.o [26]
currentChannelMask      0x2000'adbc     0x4  Data  Lc  network-steering.o [26]
currentDownloadFile     0x2000'ad8c    0x10  Data  Lc  ota-client.o [26]
currentEraseOffset      0x2000'bf30     0x4  Data  Lc  ota-storage-eeprom-page-erase.o [26]
currentEventConfig      0x2000'6aa0     0x8  Data  Lc  phy.o [27]
currentJitFlag          0x2000'd7ac     0x2  Data  Lc  jit.o [27]
currentTargetResponseIeeeAddr
                        0x2000'bbc8     0x8  Data  Lc  find-and-bind-initiator.o [26]
curve_secp160r1            0x3'9190    0xb4  Data  Lc  uECC.o [26]
customVerifyStatus      0x2000'ad88     0x1  Data  Lc  ota-client.o [26]
dataCache               0x2000'6897     0x1  Data  Lc  form-and-join-node-adapter.o [26]
dataContents            0x2000'bf04     0x4  Data  Lc  form-and-join.o [26]
dataContents            0x2000'bf98     0x4  Data  Lc  scan.o [27]
data_poll_times         0x2000'aeb3     0x1  Data  Lc  zigbee_sdk_end_device_handle.o [26]
data_reversal                0xcff9    0x26  Code  Gb  dev_common_utils.o [26]
decodeShortDestination     0x3'2259    0x46  Code  Lc  mac-header.o [27]
defaultCache            0x2000'c1c0   0x960  Data  Lc  nvm3_default.o [26]
defaultDecision         0x2000'd7e7     0x1  Data  Lc  af-trust-center.o [26]
defaultLinkKey               0xee28    0x10  Data  Lc  network-steering.o [26]
defaultSleepControl     0x2000'd7c4     0x1  Data  Lc  idle-sleep.o [26]
default_iadc_allconfig     0x1'5af8    0x18  Data  Gb  hal_adc.o [26]
default_iadc_init_st       0x1'5aec     0xc  Data  Gb  hal_adc.o [26]
default_iadc_single_init_st
                           0x1'5b10     0x8  Data  Gb  hal_adc.o [26]
default_iadc_single_input_st
                           0x1'5b18     0x4  Data  Gb  hal_adc.o [26]
deferredChangeNetwork      0x2'1521    0x7a  Code  Lc  zll-api.o [29]
deferredPanChange          0x2'5993    0x46  Code  Lc  management.o [27]
delayCount              0x2000'bfc0     0x1  Data  Lc  retry.o [27]
destinationRequiredCounters
                             0xcff0     0x8  Data  Lc  ember-stack-common.o [27]
determineDownloadFileStatus
                             0xf245    0x48  Code  Lc  ota-client.o [26]
determineNextState           0xf291    0x5c  Code  Lc  ota-client.o [26]
determinePageSizeLog       0x2'8281    0x1c  Code  Lc  ota-storage-eeprom-page-erase.o [26]
devStartTimeSync             0xd6ed    0x4a  Code  Gb  time_sync.o [26]
dev_after_exit_sleep       0x3'3c25     0xc  Code  Wk  zigbee_sdk_core.o [26]
dev_after_wakeup_callback
                           0x3'3bfd    0x28  Code  Wk  hal_uart_api.o [26]
dev_app_event_context_reinit
                             0xc141    0x32  Code  Gb  silicon_lab_modify.o [26]
dev_base_input_gpio_init
                             0x53ed    0xd6  Code  Lc  dev_gpio.o [26]
dev_before_enter_sleep     0x3'3bed     0xc  Code  Wk  zigbee_sdk_core.o [26]
dev_before_sleep_callback
                             0x4ebd    0x2c  Code  Wk  hal_uart_api.o [26]
dev_change_power_for_sdk
                             0x7719    0x16  Code  Gb  zigbee_sdk_core.o [26]
dev_clear_token_tx_power
                             0xb54b    0x24  Code  Gb  silicon_lab_modify.o [26]
dev_config_power_source_type
                             0x47ff    0x16  Code  Gb  app_common.o [1]
dev_dead_countdown_start
                             0x777b    0x16  Code  Gb  zigbee_sdk_core.o [26]
dev_dead_tick_handle         0x7791    0x2a  Code  Gb  zigbee_sdk_core.o [26]
dev_error_code_clear_callback
                             0x86d9    0x20  Code  Gb  zigbee_sdk_core.o [26]
dev_error_code_data_report
                             0x86f9    0x82  Code  Gb  zigbee_sdk_core.o [26]
dev_error_code_report        0x880b    0x7a  Code  Gb  zigbee_sdk_core.o [26]
dev_error_code_set           0x8781    0x8a  Code  Gb  zigbee_sdk_core.o [26]
dev_evt_callback             0x4755    0x6e  Code  Gb  app_common.o [1]
dev_evt_handle               0x7825    0xa6  Code  Gb  zigbee_sdk_core.o [26]
dev_evt_handle_base          0x60e1    0x16  Code  Gb  dev_evt_pool.o [26]
dev_find_cluster             0xae95    0x34  Code  Gb  create_zigbee_dev.o [26]
dev_found_endpoint           0xa711    0x36  Code  Gb  create_zigbee_dev.o [26]
dev_get_ms                   0x6217     0x4  Code  Gb  dev_evt_pool.o [26]
dev_get_rx_on_time           0x9429    0x16  Code  Gb  zigbee_sdk_end_device_handle.o [26]
dev_get_token_tx_power       0xb535    0x16  Code  Gb  silicon_lab_modify.o [26]
dev_gpio_debug_disable_all
                             0x532b     0x2  Code  Gb  dev_gpio.o [26]
dev_gpio_disable_tdio        0x5329     0x2  Code  Gb  dev_gpio.o [26]
dev_hal_gpio_output_init
                             0x54c3    0x4e  Code  Lc  dev_gpio.o [26]
dev_heartbeat_delay_ms       0x6f6d     0xa  Code  Gb  network_manager.o [26]
dev_heartbeat_event_delay
                             0x6f81    0x36  Code  Gb  network_manager.o [26]
dev_heartbeat_event_handler
                             0x6fbd    0xd8  Code  Gb  network_manager.o [26]
dev_heartbeat_set            0x691d    0x7c  Code  Gb  network_manager.o [26]
dev_join_timeout_handler
                             0x7099    0x2e  Code  Gb  network_manager.o [26]
dev_led_base_op              0x564f    0x36  Code  Gb  dev_gpio.o [26]
dev_led_is_blink             0x57cd    0x22  Code  Gb  dev_gpio.o [26]
dev_led_output_handle        0x5685    0xd4  Code  Gb  dev_gpio.o [26]
dev_led_start_blink          0x5759    0x46  Code  Gb  dev_gpio.o [26]
dev_led_stop_blink           0x579f    0x2e  Code  Gb  dev_gpio.o [26]
dev_mf_button_handle       0x1'1e85    0x24  Code  Lc  mf_test.o [26]
dev_mf_elec_adjust_handle
                           0x1'1c51    0x22  Code  Lc  mf_test.o [26]
dev_mf_elec_get_handle     0x1'1c73    0x22  Code  Lc  mf_test.o [26]
dev_mf_evt_handle          0x1'2229    0x86  Code  Lc  mf_test.o [26]
dev_mf_ext_handle          0x1'1e21    0x50  Code  Lc  mf_test.o [26]
dev_mf_general_ack         0x1'1685    0x44  Code  Lc  mf_test.o [26]
dev_mf_get_authkey_handle
                           0x1'17a9    0x6e  Code  Lc  mf_test.o [26]
dev_mf_get_firmware_handle
                           0x1'1955    0x72  Code  Lc  mf_test.o [26]
dev_mf_get_mac_handle      0x1'1835    0x64  Code  Lc  mf_test.o [26]
dev_mf_get_pid_handle      0x1'18a9    0xac  Code  Lc  mf_test.o [26]
dev_mf_leave_net_handle
                           0x1'1ef5    0x16  Code  Lc  mf_test.o [26]
dev_mf_led_test_handle     0x1'19c7    0x50  Code  Lc  mf_test.o [26]
dev_mf_make_crc            0x1'1207    0x24  Code  Lc  mf_test.o [26]
dev_mf_oem_get_handle      0x1'1de7    0x34  Code  Lc  mf_test.o [26]
dev_mf_oem_set_handle      0x1'1d0f    0xd8  Code  Lc  mf_test.o [26]
dev_mf_pid_set_handle      0x1'1b49    0xd8  Code  Lc  mf_test.o [26]
dev_mf_protocol_handle     0x1'1f21   0x20e  Code  Lc  mf_test.o [26]
dev_mf_relay_test_handle
                           0x1'1a1d    0x52  Code  Lc  mf_test.o [26]
dev_mf_reset_handle        0x1'1c21    0x30  Code  Lc  mf_test.o [26]
dev_mf_rf_recv_callback
                           0x1'13c1    0x9a  Code  Lc  mf_test.o [26]
dev_mf_rf_report_test_result
                           0x1'1a6f    0x38  Code  Lc  mf_test.o [26]
dev_mf_rf_test             0x1'145b    0x66  Code  Lc  mf_test.o [26]
dev_mf_rf_test_handle      0x1'1adf    0x6a  Code  Lc  mf_test.o [26]
dev_mf_rf_test_handle::packet
                           0x1'236c     0xc  Data  Lc  mf_test.o [26]
dev_mf_rf_test_init        0x1'14c1    0x1c  Code  Lc  mf_test.o [26]
dev_mf_rssi_get_handle     0x1'1eb1    0x44  Code  Lc  mf_test.o [26]
dev_mf_send                0x1'14dd    0x98  Code  Lc  mf_test.o [26]
dev_mf_set_authkey_handle
                           0x1'174d    0x54  Code  Lc  mf_test.o [26]
dev_mf_signed_handle       0x1'16e9    0x5e  Code  Lc  mf_test.o [26]
dev_mf_test_beacon_test_handle
                           0x1'21fd    0x2c  Code  Lc  mf_test.o [26]
dev_mf_test_callback         0xd6bb     0x6  Code  Gb  simple_contact_sensor_callback.o [1]
dev_mf_test_disable_handle
                             0x6b09    0x18  Code  Gb  network_manager.o [26]
dev_mf_test_enable_handle
                             0x6b21    0x20  Code  Gb  network_manager.o [26]
dev_mf_test_init           0x1'2135    0x7a  Code  Gb  mf_test.o [26]
dev_mf_test_protocol_recv_handle
                           0x1'1235   0x158  Code  Lc  mf_test.o [26]
dev_mf_test_protocol_recv_handle::temp_len
                        0x2000'a85a     0x2  Data  Lc  mf_test.o [26]
dev_mf_test_uart_recv_handle
                           0x1'138d    0x2a  Code  Lc  mf_test.o [26]
dev_mf_test_zigbee_recv_handle
                           0x1'13b7     0xa  Code  Lc  mf_test.o [26]
dev_msg_recv_callback        0xd67d    0x20  Code  Gb  simple_contact_sensor_callback.o [1]
dev_msg_write_attr_callback
                             0xd69d    0x1e  Code  Gb  simple_contact_sensor_callback.o [1]
dev_power_change_to_max
                             0x772f    0x2c  Code  Gb  zigbee_sdk_core.o [26]
dev_power_change_to_normal
                             0x775b    0x20  Code  Gb  zigbee_sdk_core.o [26]
dev_power_handle             0x6999   0x110  Code  Gb  network_manager.o [26]
dev_power_handle{1}{2}{14}::change_power_flag
                        0x2000'd7b2     0x1  Data  Lc  network_manager.o [26]
dev_power_on_init            0xd529    0x10  Code  Gb  simple_contact_sensor_callback.o [1]
dev_power_on_report_info
                             0xd6c1     0x2  Code  Gb  simple_contact_sensor_callback.o [1]
dev_recovery_factory         0xd6c3    0x14  Code  Gb  simple_contact_sensor_callback.o [1]
dev_register_base_info       0x73df    0x16  Code  Gb  zigbee_sdk_core.o [26]
dev_register_base_info_inner
                             0x72ef    0xcc  Code  Lc  zigbee_sdk_core.o [26]
dev_register_zg_dev_config
                             0x73bb    0x24  Code  Gb  zigbee_sdk_core.o [26]
dev_register_zg_ep_infor
                             0xa75d   0x1d6  Code  Gb  create_zigbee_dev.o [26]
dev_remote_manager_handle
                             0x7201    0xc6  Code  Gb  network_manager.o [26]
dev_remote_manager_send_data
                             0x7191    0x70  Code  Gb  network_manager.o [26]
dev_reset_to_factory_default
                             0x7a21    0xa4  Code  Gb  zigbee_sdk_core.o [26]
dev_scene_add_callback       0xd6d9     0x2  Code  Gb  simple_contact_sensor_callback.o [1]
dev_scene_recall_callback
                             0xd6d7     0x2  Code  Gb  simple_contact_sensor_callback.o [1]
dev_set_profile_id           0xc173     0x8  Code  Gb  silicon_lab_modify.o [26]
dev_set_tx_power_handle
                             0xb56f    0x70  Code  Gb  silicon_lab_modify.o [26]
dev_sleep_before_callback_sdk
                             0x8885    0x1a  Code  Gb  zigbee_sdk_core.o [26]
dev_sys_reset                0x8635     0x4  Code  Gb  zigbee_sdk_core.o [26]
dev_system_on_init           0xd539    0x30  Code  Gb  simple_contact_sensor_callback.o [1]
dev_tick_handle              0x7815     0xc  Code  Gb  zigbee_sdk_core.o [26]
dev_time_compare             0xd17d    0x32  Code  Gb  dev_common_utils.o [26]
dev_time_evt_handle          0xd7ad    0x3a  Code  Gb  time_sync.o [26]
dev_time_init_evt_handle
                             0xd7e9    0x36  Code  Gb  time_sync.o [26]
dev_time_sync_disable        0xd81f    0x12  Code  Gb  time_sync.o [26]
dev_time_sync_time_cfg       0xd6dd    0x10  Code  Gb  time_sync.o [26]
dev_timer_clear              0x615b    0x18  Code  Gb  dev_evt_pool.o [26]
dev_timer_get_remaining_time
                             0x618b    0x16  Code  Gb  dev_evt_pool.o [26]
dev_timer_get_valid_flag
                             0x6173    0x18  Code  Gb  dev_evt_pool.o [26]
dev_timer_start              0x60f7    0x22  Code  Gb  dev_evt_pool.o [26]
dev_timer_start_with_callback
                             0x6119    0x32  Code  Gb  dev_evt_pool.o [26]
dev_timer_stop               0x614b    0x10  Code  Gb  dev_evt_pool.o [26]
dev_uart_gpio_wake_up_callback
                             0x9a5f     0x2  Code  Wk  zigbee_sdk_core.o [26]
dev_unusual_wakeup_timeout_check
                             0x99f5    0x3a  Code  Gb  zigbee_sdk_end_device_handle.o [26]
dev_wake_up_callback       0x3'3bf9     0x2  Code  Wk  zigbee_sdk_core.o [26]
dev_wakeup_timeout_handle
                             0x889f    0x28  Code  Gb  zigbee_sdk_core.o [26]
dev_zg_join_config           0x65bb     0xc  Code  Gb  network_manager.o [26]
dev_zigbee_clear_all_same_data
                             0x73f9    0xa8  Code  Lc  zigbee_sdk_core.o [26]
dev_zigbee_clear_group_table
                             0x677d    0x2c  Code  Lc  network_manager.o [26]
dev_zigbee_clear_history_resource
                             0x65cf    0x5a  Code  Gb  network_manager.o [26]
dev_zigbee_clear_scene_table
                             0x67a9    0x88  Code  Lc  network_manager.o [26]
dev_zigbee_clear_send_data
                             0x752d    0x78  Code  Gb  zigbee_sdk_core.o [26]
dev_zigbee_clear_zcl_id_same_data
                             0x74a1    0x8a  Code  Lc  zigbee_sdk_core.o [26]
dev_zigbee_delay_leave       0x686d     0xc  Code  Gb  network_manager.o [26]
dev_zigbee_join_base         0x6893    0x4a  Code  Gb  network_manager.o [26]
dev_zigbee_join_sdk_start
                             0x68f9    0x24  Code  Gb  network_manager.o [26]
dev_zigbee_join_start        0x68dd    0x1c  Code  Gb  network_manager.o [26]
dev_zigbee_leave             0x6849    0x24  Code  Lc  network_manager.o [26]
dev_zigbee_leave_for_mf_test
                             0x6879    0x1a  Code  Gb  network_manager.o [26]
dev_zigbee_leave_for_sdk
                             0x683f     0xa  Code  Gb  network_manager.o [26]
dev_zigbee_leave_for_user
                             0x6831     0xe  Code  Gb  network_manager.o [26]
dev_zigbee_read_attribute
                             0x846b    0x20  Code  Gb  zigbee_sdk_core.o [26]
dev_zigbee_report_app_ver
                             0x6d51    0xc4  Code  Gb  network_manager.o [26]
dev_zigbee_report_power_percentage
                             0x6e1d    0xf0  Code  Lc  network_manager.o [26]
dev_zigbee_report_table_recovery
                             0xc325    0x1c  Code  Gb  silicon_lab_modify.o [26]
dev_zigbee_send_data         0x75a5    0xcc  Code  Gb  zigbee_sdk_core.o [26]
dev_zigbee_specific_response_handle
                             0x73f5     0x4  Code  Gb  zigbee_sdk_core.o [26]
dev_zigbee_write_attribute
                             0x8441    0x2a  Code  Gb  zigbee_sdk_core.o [26]
dev_zigbee_zcl_ack_handle
                             0x78e9   0x138  Code  Gb  zigbee_sdk_core.o [26]
dev_zigbee_zcl_recv_handle
                             0x7ac5   0x1c4  Code  Gb  zigbee_sdk_core.o [26]
dev_zigbee_zcl_recv_handle{2}{5}{6}{7}{8}{9}{14}::op
                        0x2000'7288    0x14  Data  Lc  zigbee_sdk_core.o [26]
dev_zigbee_zcl_recv_handle{2}{5}{6}{7}{8}{9}{14}::temp_attr
                        0x2000'729c     0x8  Data  Lc  zigbee_sdk_core.o [26]
dev_zigbee_zcl_report        0x7ed5   0x378  Code  Lc  zigbee_sdk_core.o [26]
deviceIsCoordinator     0x2000'6a91     0x1  Data  Lc  phy.o [27]
disableInterrupts          0x2'e377    0x14  Code  Lc  tempdrv.o [26]
disableOtaDowngrades    0x2000'ad8a     0x1  Data  Lc  ota-client.o [26]
disable_gw_change_power
                             0x770f     0xa  Code  Gb  zigbee_sdk_core.o [26]
disable_uart_gpio            0x538d    0x44  Code  Lc  dev_gpio.o [26]
dispatchZclMessage         0x1'4759    0x7e  Code  Lc  util.o [26]
distributedTestKey           0xee38    0x10  Data  Lc  network-steering.o [26]
double_jacobian_default
                           0x2'9b25   0x16a  Code  Lc  uECC.o [26]
downloadAndVerifyFinish
                             0xf8b1    0x6c  Code  Lc  ota-client.o [26]
downloadAndVerifyFinish::zclStatusFromResult
                             0xfd68     0x8  Data  Lc  ota-client.o [26]
dpllRefClkGet              0x1'60a1    0x4a  Code  Lc  em_cmu.o [26]
dropJoinBeacon             0x1'64e7    0x1a  Code  Lc  association.o [27]
duplicateFilter         0x2000'badc    0x60  Data  Lc  green-power-client.o [26]
ecc_flash_data_read        0x1'3a43    0x42  Code  Gb  ecc_use.o [26]
ecc_flash_data_read_ext
                           0x1'3a85    0x16  Code  Gb  ecc_use.o [26]
ecc_flash_data_write       0x1'3a21    0x22  Code  Gb  ecc_use.o [26]
ecc_flash_data_write_ext
                           0x1'3ae1    0x10  Code  Gb  ecc_use.o [26]
ecc_info_install_to_attr
                           0x1'3b67    0x74  Code  Gb  ecc_use.o [26]
ecc_init                   0x1'3cf3     0xe  Code  Gb  ecc_use.o [26]
ecc_init_base              0x1'3b21    0x46  Code  Lc  ecc_use.o [26]
edCcaThresholds         0x2000'683a     0x2  Data  Lc  phy.o [27]
eepromFirstTimeInit        0x2'a7a1    0x48  Code  Lc  eeprom.o [26]
eepromInitialized       0x2000'd7e8     0x1  Data  Lc  eeprom.o [26]
efr32WakeUp                0x1'bfcd    0xc4  Code  Lc  phy.o [27]
em01GrpaClkGet             0x1'60ed    0x50  Code  Lc  em_cmu.o [26]
em23GrpaClkGet             0x1'613d    0x48  Code  Lc  em_cmu.o [26]
em4GrpaClkGet              0x1'6185    0x46  Code  Lc  em_cmu.o [26]
em4WakeupCause          0x2000'c1bc     0x4  Data  Lc  sleep-efm32.o [26]
emActiveAlwaysOnNetworkFound
                           0x1'7f21    0x16  Code  Gb  ember-multi-network-stub.o [20]
emActiveTaskCount       0x2000'd7c1     0x1  Data  Lc  event-control.o [27]
emAddApsFrame              0x2'69e5   0x104  Code  Gb  zigbee-packet-header.o [27]
emAddBeaconPayload         0x1'7913    0xa6  Code  Gb  association.o [27]
emAddBlacklistedId         0x2'8cdd    0x80  Code  Gb  random-id.o [27]
emAddBroadcastTableEntry
                           0x2'1c37    0x6e  Code  Gb  broadcast.o [27]
emAddCurrentNetworkToPollingQueue
                           0x1'7fb9     0x2  Code  Gb  ember-multi-network-stub.o [20]
emAddNeighborGuaranteed
                           0x1'05f9    0x9e  Code  Gb  neighbor.o [27]
emAddPendingAckedMessage
                           0x2'323b    0x64  Code  Gb  aps-retry.o [27]
emAddRejoinedChild         0x2'4aa7   0x140  Code  Gb  child.o [27]
emAddTransientLinkKey      0x3'351f    0xaa  Code  Gb  aps-keys-transient.o [23]
emAddTrustCenterRoute      0x3'1d2f    0x28  Code  Gb  route-discovery.o [27]
emAddTunnelledApsHeader
                           0x2'd3a5    0x3c  Code  Gb  trust-center-util.o [23]
emAddUnicastTableEntry     0x2'8a3b    0x26  Code  Gb  unicast-table.o [27]
emAddressTable          0x2000'6764     0x4  Data  Gb  ember-configuration.o [26]
emAddressTableSize      0x2000'686b     0x1  Data  Gb  ember-configuration.o [26]
emAesDecrypt               0x3'3ac9     0xe  Code  Gb  aes.o [27]
emAesEncrypt               0x3'3ab9    0x10  Code  Gb  aes.o [27]
emAfAbortPageRequest       0x2'7d83     0x2  Code  Gb  ota-client-page-request.o [26]
emAfAppEventContext     0x2000'6330    0x18  Data  Gb  af-event.o [26]
emAfAppEventContextLength
                        0x2000'6348     0x2  Data  Gb  af-event.o [26]
emAfApplyDisableDefaultResponse
                           0x1'49eb    0x28  Code  Gb  util.o [26]
emAfApplyRetryOverride     0x1'49b1    0x26  Code  Gb  util.o [26]
emAfAssertNetworkIndexStackIsEmpty
                           0x1'afe5     0x2  Code  Gb  multi-network.o [26]
emAfCallInits              0x1'4115    0x34  Code  Gb  attribute-storage.o [26]
emAfClearLinkKeyTable      0x2'7a15     0x2  Code  Gb  af-security-common.o [26]
emAfClusterAttributeChangedCallback
                           0x1'4023    0x58  Code  Gb  attribute-storage.o [26]
emAfClusterPreAttributeChangedCallback
                           0x1'407b    0x50  Code  Gb  attribute-storage.o [26]
emAfCommandApsFrame     0x2000'b77c     0x4  Data  Gb  client-api.o [26]
emAfCopyMessageIntoRamBuffer
                             0xc761    0x2a  Code  Gb  af-main-soc.o [26]
emAfCurrentCommand      0x2000'b7c8     0x4  Data  Gb  util.o [26]
emAfCurrentZigbeeProNetwork
                        0x2000'b8d4     0x4  Data  Gb  multi-network.o [26]
emAfDisableDefaultResponse
                        0x2000'd7c6     0x1  Data  Lc  util.o [26]
emAfEepromSavedPartialWrites
                        0x2000'cfb4    0x18  Data  Gb  eeprom.o [26]
emAfEndpoints           0x2000'ad68     0x4  Data  Gb  attribute-storage.o [26]
emAfEvents              0x2000'634c   0x220  Data  Gb  af-event.o [26]
emAfForceEndDeviceToStayAwake
                        0x2000'd7c3     0x1  Data  Gb  idle-sleep.o [26]
emAfGetCryptoStatus        0x1'cbe1     0x6  Code  Gb  crypto-state.o [26]
emAfGetCurrentPageRequestStatus
                           0x2'7d77     0x4  Code  Gb  ota-client-page-request.o [26]
emAfGetEblStartOffset      0x1'ceeb     0x8  Code  Gb  ota-storage-eeprom.o [26]
emAfGetFinishedPageRequestOffset
                           0x2'7d7f     0x4  Code  Gb  ota-client-page-request.o [26]
emAfGetManufacturerCodeForAttribute
                           0x1'4241     0xe  Code  Gb  attribute-storage.o [26]
emAfGetManufacturerCodeForCluster
                           0x1'424f    0x1a  Code  Gb  attribute-storage.o [26]
emAfGetPacketBufferFreeCount
                             0xc8c3     0x6  Code  Gb  af-main-soc.o [26]
emAfGetPageRequestMissedPacketDelayMs
                           0x2'7d7b     0x4  Code  Gb  ota-client-page-request.o [26]
emAfHandlingPageRequestClient
                           0x2'7d69     0x4  Code  Gb  ota-client-page-request.o [26]
emAfIncomingMessageHandler
                           0x1'b46d    0x94  Code  Gb  af-main-common.o [26]
emAfInit                   0x1'b6a1     0xe  Code  Gb  afv2-bookkeeping.o [26]
emAfInitEvents             0x1'ca9d    0x14  Code  Gb  af-event.o [26]
emAfInitPageRequestClient
                           0x2'7d65     0x4  Code  Gb  ota-client-page-request.o [26]
emAfInitializeMessageSentCallbackArray
                           0x1'b089    0x1e  Code  Gb  af-main-common.o [26]
emAfInitializeNetworkIndexStack
                           0x1'afb5     0xa  Code  Gb  multi-network.o [26]
emAfIsEepromInitialized
                           0x2'a76b     0x8  Code  Gb  eeprom.o [26]
emAfLoadAttributeDefaults
                             0xace9   0x134  Code  Gb  create_zigbee_dev.o [26]
emAfMatchAttribute         0x1'4295    0x26  Code  Gb  attribute-storage.o [26]
emAfMatchCluster           0x1'4269    0x2c  Code  Gb  attribute-storage.o [26]
emAfMessageSentHandler     0x1'b503    0xb4  Code  Gb  af-main-common.o [26]
emAfNetworkInit            0x1'b619    0x5c  Code  Gb  af-main-common.o [26]
emAfNextMissedBlockRequestOffset
                           0x2'7d73     0x4  Code  Gb  ota-client-page-request.o [26]
emAfNoteReceivedBlockForPageRequestClient
                           0x2'7d6f     0x4  Code  Gb  ota-client-page-request.o [26]
emAfOkToIdleOrSleep        0x1'396f    0x50  Code  Gb  idle-sleep.o [26]
emAfOtaClientServiceDiscoveryCallback
                             0xf0fb    0x8e  Code  Gb  ota-client.o [26]
emAfOtaClientStop            0xf0b7    0x26  Code  Gb  ota-client.o [26]
emAfOtaImageSignatureVerify
                           0x2'865f     0x4  Code  Gb  ota-client-signature-verify.o [26]
emAfOtaMinMessageLengths
                           0x3'84c4     0xc  Data  Gb  ota-common.o [26]
emAfOtaParseImageIdFromMessage
                           0x2'85b1    0x3a  Code  Gb  ota-common.o [26]
emAfOtaStorageCheckDownloadMetaData
                           0x1'd03d    0x32  Code  Gb  ota-storage-eeprom.o [26]
emAfOtaStorageDriverGetRealOffset
                           0x1'cf2b    0x46  Code  Gb  ota-storage-eeprom.o [26]
emAfOtaStorageEepromInit
                           0x2'8365    0x82  Code  Gb  ota-storage-eeprom-page-erase.o [26]
emAfOtaStorageGetHeaderLengthAndImageSize
                           0x1'cd1d    0x28  Code  Gb  ota-storage-common.o [26]
emAfOtaStorageGetImageIdFromHeader
                           0x1'ccb9    0x44  Code  Gb  ota-storage-common.o [26]
emAfOtaStorageGetSlot      0x1'd117     0x6  Code  Gb  ota-storage-eeprom.o [26]
emAfOtaStorageGetTagOffsetAndSize
                           0x1'cd45    0x86  Code  Gb  ota-storage-common.o [26]
emAfOtaStorageReadAllTagInfo
                           0x1'cdcb    0x98  Code  Gb  ota-storage-common.o [26]
emAfOtaStorageReadInt32uFromEeprom
                           0x1'ce8d    0x28  Code  Gb  ota-storage-eeprom.o [26]
emAfOtaStorageWriteDownloadMetaData
                           0x1'd071    0x1c  Code  Gb  ota-storage-eeprom.o [26]
emAfOtaStorageWriteInt32uToEeprom
                           0x1'ceb5    0x36  Code  Gb  ota-storage-eeprom.o [26]
emAfPageRequestTimerExpired
                           0x2'7d6d     0x2  Code  Gb  ota-client-page-request.o [26]
emAfPermitJoin             0x1'b40f    0x1c  Code  Gb  af-main-common.o [26]
emAfPluginNetworkSteeringCleanup
                             0xee25     0x2  Code  Gb  network-steering.o [26]
emAfPluginNetworkSteeringClearStoredPanIds
                           0x2'7961    0x14  Code  Gb  network-steering-soc.o [26]
emAfPluginNetworkSteeringCurrentChannel
                        0x2000'adaf     0x1  Data  Gb  network-steering.o [26]
emAfPluginNetworkSteeringGetMaxPossiblePanIds
                           0x2'795d     0x4  Code  Gb  network-steering-soc.o [26]
emAfPluginNetworkSteeringGetStoredPanIdPointer
                           0x2'7975    0x38  Code  Gb  network-steering-soc.o [26]
emAfPluginNetworkSteeringJoinAttempts
                        0x2000'adb1     0x1  Data  Gb  network-steering.o [26]
emAfPluginNetworkSteeringOptionsMask
                        0x2000'adb2     0x1  Data  Gb  network-steering.o [26]
emAfPluginNetworkSteeringPanIdIndex
                        0x2000'adae     0x1  Data  Gb  network-steering.o [26]
emAfPluginNetworkSteeringPrimaryChannelMask
                        0x2000'62b8     0x4  Data  Gb  network-steering.o [26]
emAfPluginNetworkSteeringSecondaryChannelMask
                        0x2000'62bc     0x4  Data  Gb  network-steering.o [26]
emAfPluginNetworkSteeringState
                        0x2000'adaa     0x1  Data  Gb  network-steering.o [26]
emAfPluginNetworkSteeringTotalBeacons
                        0x2000'adb0     0x1  Data  Gb  network-steering.o [26]
emAfPluginReportVolatileData
                        0x2000'68a0   0x1e0  Data  Gb  reporting.o [26]
emAfPluginReportingGetEntry
                           0x1'd7cb     0xc  Code  Gb  reporting.o [26]
emAfPluginReportingSetEntry
                           0x1'd7d7     0xc  Code  Gb  reporting.o [26]
emAfPreCommandReceived     0x1'b6c1     0x4  Code  Gb  afv2-bookkeeping.o [26]
emAfPreZDOMessageReceived
                           0x1'b6c5     0x4  Code  Gb  afv2-bookkeeping.o [26]
emAfPrintInternalVarArg
                           0x3'3aed    0x2e  Code  Lc  print.o [26]
emAfProcessClusterSpecificCommand
                             0xc099    0x62  Code  Gb  silicon_lab_modify.o [26]
emAfProcessGlobalCommand
                             0xba7d   0x61c  Code  Gb  silicon_lab_modify.o [26]
emAfProcessGlobalCommand{7}{8}{9}{10}{11}::attr_sums
                        0x2000'c026     0x1  Data  Lc  silicon_lab_modify.o [26]
emAfProcessZdo             0x1'b42b    0x42  Code  Gb  af-main-common.o [26]
emAfReadAttribute          0x1'01bd    0x46  Code  Gb  attribute-table.o [26]
emAfReadAttributesResponse
                           0x1'b6df     0x4  Code  Gb  afv2-bookkeeping.o [26]
emAfReadOrWriteAttribute
                             0xab99   0x150  Code  Gb  create_zigbee_dev.o [26]
emAfReportAttributes       0x1'b6e3     0x4  Code  Gb  afv2-bookkeeping.o [26]
emAfResponseLengthPtr   0x2000'b778     0x4  Data  Gb  client-api.o [26]
emAfRetrieveAttributeAndCraftResponse
                             0xc3a5    0x5e  Code  Gb  silicon_lab_modify.o [26]
emAfSaveAttributeToToken
                             0xae1d    0x5c  Code  Gb  create_zigbee_dev.o [26]
emAfSavedDisableDefaultResponseVale
                        0x2000'd7c7     0x1  Data  Lc  util.o [26]
emAfSend                     0xc80d    0xa6  Code  Gb  af-main-soc.o [26]
emAfSendMatchDescriptor
                           0x3'3b39    0x5c  Code  Gb  service-discovery-soc.o [26]
emAfServiceDiscoveryEventControls
                        0x2000'bb84    0x20  Data  Gb  service-discovery-common.o [26]
emAfServiceDiscoveryIncoming
                           0x2'80e1    0x80  Code  Gb  service-discovery-common.o [26]
emAfServiceDiscoveryTimeoutHandler
                           0x2'7ec1    0x10  Code  Gb  service-discovery-common.o [26]
emAfSetCryptoStatus        0x1'cbe7     0x6  Code  Gb  crypto-state.o [26]
emAfStackStatusHandler     0x1'b5b7    0x62  Code  Gb  af-main-common.o [26]
emAfStayAwakeWhenNotJoined
                        0x2000'd7c2     0x1  Data  Gb  idle-sleep.o [26]
emAfStorageEepromUpdateDownloadOffset
                           0x2'8495    0x4e  Code  Gb  ota-storage-eeprom-page-erase.o [26]
emAfSyncingTime         0x2000'd7cb     0x1  Data  Gb  process-global-message.o [26]
emAfTaskId              0x2000'd7c9     0x1  Data  Gb  af-event.o [26]
emAfTestApsSecurityOverride
                        0x2000'6858     0x1  Data  Gb  util.o [26]
emAfTick                   0x1'b6af    0x12  Code  Gb  afv2-bookkeeping.o [26]
emAfTimeClusterServerSetCurrentTime
                           0x2'f26d    0x5e  Code  Gb  time-server.o [26]
emAfWriteAttribute         0x1'0021   0x19c  Code  Gb  attribute-table.o [26]
emAfZclBuffer           0x2000'b774     0x4  Data  Gb  client-api.o [26]
emAfZclBufferLen        0x2000'b770     0x2  Data  Gb  client-api.o [26]
emAfZigbeeKeyEstablishment
                           0x1'b6c9    0x16  Code  Gb  afv2-bookkeeping.o [26]
emAfZigbeeProNetworks   0x2000'6820     0x2  Data  Gb  attribute-storage.o [26]
emAgeBlacklistedIds        0x2'8d93    0x22  Code  Gb  random-id.o [27]
emAgeBroadcastTable        0x2'1bd1    0x40  Code  Gb  broadcast.o [27]
emAgeChildren              0x2'2645    0x5c  Code  Gb  child-aging.o [27]
emAgeChildrenAllNetworks
                           0x2'2753    0x20  Code  Gb  child-aging.o [27]
emAgeRouteTables           0x2'1e3b    0xf0  Code  Gb  route-table.o [27]
emAgingEbrListEvent     0x2000'bfa0     0x8  Data  Gb  enhanced-beacon-request-stub.o [28]
emAgingEbrListEventHandler
                           0x2'd469     0x2  Code  Gb  enhanced-beacon-request-stub.o [28]
emAllNetworksInit          0x1'fab5    0x5a  Code  Gb  network.o [27]
emAllowRelay            0x2000'6860     0x1  Data  Gb  ember-configuration.o [26]
emAllowTcRejoinsUsingWellKnownKeyEventControl
                        0x2000'ae18     0x8  Data  Gb  association.o [27]
emAllowTcRejoinsUsingWellKnownKeyEventHandler
                           0x1'7d55     0xa  Code  Gb  association.o [27]
emAmMulticastMember        0x1'f0e1    0x44  Code  Gb  address-table.o [27]
emAmNetworkManager         0x2'5a1d    0x26  Code  Gb  management.o [27]
emAnyChildHasFlagsSet      0x2'4953    0x2e  Code  Gb  child.o [27]
emAppZdoConfigurationFlags
                        0x2000'd7cf     0x1  Data  Gb  ember-configuration.o [26]
emAppendToLinkedBuffers
                           0x1'0d17    0x40  Code  Gb  packet-buffer.o [27]
emApplicationCheckIncomingQueue
                           0x1'e75f    0x2e  Code  Gb  application-support.o [27]
emApplicationProcessIncoming
                           0x1'e78d   0x1ae  Code  Gb  application-support.o [27]
emApplicationProcessIncomingAck
                           0x2'329f    0xe4  Code  Gb  aps-retry.o [27]
emApplicationSecurityMessageHandler
                           0x2'6cbd   0x220  Code  Gb  aps-security.o [23]
emApsBaseFrameSize         0x2'6841    0x30  Code  Gb  zigbee-packet-header.o [27]
emApsCrypt                 0x2'f64f   0x13a  Code  Gb  aps-encryption.o [23]
emApsExtendedHeaderSize
                           0x2'6827    0x1a  Code  Gb  zigbee-packet-header.o [27]
emApsFrameSize             0x2'6871    0x32  Code  Gb  zigbee-packet-header.o [27]
emApsFrameToApsStruct      0x2'68c3   0x122  Code  Gb  zigbee-packet-header.o [27]
emApsHeaderSize            0x2'6807    0x20  Code  Gb  zigbee-packet-header.o [27]
emApsPurge                 0x2'3209    0x30  Code  Gb  aps-retry.o [27]
emApsUnicastMessageData
                        0x2000'6768     0x4  Data  Gb  ember-configuration.o [26]
emAreKeysAuthorizedByDefault
                           0x2'3ac3     0x4  Code  Gb  cbke-crypto-engine-stub.o [8]
emAssociationHandler       0x1'6ee9   0x28c  Code  Gb  association.o [27]
emAssociationInProgress
                           0x1'7f1d     0x4  Code  Gb  ember-multi-network-stub.o [20]
emAssociationRequestNotSent
                           0x1'71f7     0x2  Code  Gb  association.o [27]
emAssumeSymmetricLink      0x1'0697    0x22  Code  Gb  neighbor.o [27]
emAuxiliaryZdoRequestHandler
                           0x3'3d1d   0x9ac  Code  Gb  zigbee-device.o [27]
emAvailableMemory       0x2000'00a0  0x39dc  Data  Gb  ember-configuration.o [26]
emBeaconClassificationParams
                        0x2000'62c0     0x4  Data  Gb  association.o [27]
emBindingFlags          0x2000'675c     0x4  Data  Gb  ember-configuration.o [26]
emBindingRemoteNode     0x2000'6758     0x4  Data  Gb  ember-configuration.o [26]
emBindingTableLibraryStatus
                           0x3'8430     0x1  Data  Gb  binding-table.o [2]
emBroadcastAgeCutoffIndexes
                        0x2000'c0a4     0x4  Data  Gb  broadcast.o [27]
emBroadcastGetMinAcksNeeded
                           0x2'1cd5     0x6  Code  Gb  broadcast.o [27]
emBroadcastHead         0x2000'c09c     0x1  Data  Gb  broadcast.o [27]
emBroadcastMinAcksNeeded
                        0x2000'688e     0x1  Data  Gb  broadcast.o [27]
emBroadcastTable        0x2000'6740     0x4  Data  Gb  ember-configuration.o [26]
emBroadcastTableIsFull     0x2'1c11    0x26  Code  Gb  broadcast.o [27]
emBroadcastTableSize    0x2000'6865     0x1  Data  Gb  ember-configuration.o [26]
emBuildAndSendCounterInfo
                           0x1'7fef    0x78  Code  Gb  ember-multi-network-stub.o [20]
emCalculateMic             0x3'1315   0x198  Code  Gb  crypto.o [27]
emCallCounterHandler       0x1'7fdb    0x14  Code  Gb  ember-multi-network-stub.o [20]
emCallIncomingMessageHandler
                           0x1'ed0d    0xb0  Code  Gb  zigbee-dispatch.o [27]
emCallStackStatusHandler
                           0x1'7fd7     0x4  Code  Gb  ember-multi-network-stub.o [20]
emCallZigbeeKeyEstablishmentHandler
                           0x1'7fd3     0x4  Code  Gb  ember-multi-network-stub.o [20]
emCapabilityBytes          0x2'4eb4     0x8  Data  Gb  child.o [27]
emCbke283k1DsaVerifyLibraryStatus
                           0x3'acaf     0x1  Data  Gb  cbke-crypto-engine-dsa-verify-283k1-stub.o [6]
emCbke283k1LibraryStatus
                           0x3'ac93     0x1  Data  Gb  cbke-crypto-engine-283k1-stub.o [4]
emCbkeCoreLibraryStatus
                           0x3'ac91     0x1  Data  Gb  cbke-crypto-engine-stub.o [8]
emCbkeDsaLibraryStatus     0x3'acac     0x1  Data  Gb  cbke-crypto-engine-dsa-sign-stub.o [5]
emCbkeDsaVerifyLibraryStatus
                           0x3'acb0     0x1  Data  Gb  cbke-crypto-engine-dsa-verify-stub.o [7]
emCbkeIsIdle               0x2'3abd     0x4  Code  Gb  cbke-crypto-engine-stub.o [8]
emCbkeLibraryStatus        0x3'ac92     0x1  Data  Gb  cbke-crypto-engine-163k1-stub.o [3]
emCbkeTick                 0x2'3ac1     0x2  Code  Gb  cbke-crypto-engine-stub.o [8]
emChannelChangeEvent    0x2000'c078     0x8  Data  Gb  zdo-channel.o [27]
emChannelChangeEventHandler
                           0x2'3155    0x44  Code  Gb  zdo-channel.o [27]
emCheckAdditionalPendingDataIsr
                           0x2'297b    0x4e  Code  Gb  mac-indirect.o [27]
emCheckAvailableMemory     0x1'80e7     0x2  Code  Gb  ember-configuration.o [26]
emCheckChannelStatus       0x2'2d65    0x86  Code  Gb  zdo-channel.o [27]
emCheckEBRFilterList       0x2'd465     0x4  Code  Gb  enhanced-beacon-request-stub.o [28]
emCheckIncomingFrameCounter
                           0x2'560b    0x26  Code  Gb  zigbee-neighbor.o [27]
emCheckOrSetTrustCenterEui64
                           0x2'5123    0x42  Code  Gb  aps-keys.o [23]
emCheckRadioEvent       0x2000'c014     0x8  Data  Gb  upper-mac.o [27]
emCheckRadioEventHandler
                           0x2'4445    0x14  Code  Gb  upper-mac.o [27]
emChildExtendedTimeout     0x1'f059    0x26  Code  Gb  address-table.o [27]
emChildIdTable          0x2000'671c     0x4  Data  Gb  ember-configuration.o [26]
emChildInit                0x2'4809    0xae  Code  Gb  child.o [27]
emChildLqi              0x2000'672c     0x4  Data  Gb  ember-configuration.o [26]
emChildPower            0x2000'6728     0x4  Data  Gb  ember-configuration.o [26]
emChildProcessQuality      0x2'48ed    0x32  Code  Gb  child.o [27]
emChildStatus           0x2000'6720     0x4  Data  Gb  ember-configuration.o [26]
emChildTimers           0x2000'6724     0x4  Data  Gb  ember-configuration.o [26]
emChooseRandomNeighbor     0x1'0999    0x70  Code  Gb  neighbor.o [27]
emClearChildFrameCounter
                           0x2'4a8f    0x18  Code  Gb  child.o [27]
emClearSecurityData        0x2'7787    0x1a  Code  Gb  aps-security.o [23]
emClearUnicastTable        0x2'8a61     0xa  Code  Gb  unicast-table.o [27]
emCopyToNormalizedBuffers
                           0x1'0cbd    0x5a  Code  Gb  packet-buffer.o [27]
emCostDivision             0x1'bbf1     0xa  Code  Gb  phy.o [27]
emCostDivisions         0x2000'6700     0x4  Data  Lc  phy.o [27]
emCurrentApsStruct      0x2000'b858     0x4  Data  Gb  zigbee-dispatch.o [27]
emCurrentBindingIndex   0x2000'd7c8     0x1  Data  Gb  zigbee-dispatch.o [27]
emCurrentChannel        0x2000'c093     0x1  Data  Gb  network.o [27]
emCurrentLqi            0x2000'c091     0x1  Data  Gb  network.o [27]
emCurrentMessageStatus  0x2000'b854     0x1  Data  Gb  zigbee-dispatch.o [27]
emCurrentNetwork        0x2000'b844     0x4  Data  Gb  ember-multi-network-stub.o [20]
emCurrentNetworkInit       0x1'fb0f    0x2a  Code  Gb  network.o [27]
emCurrentRadioNetwork   0x2000'b848     0x4  Data  Gb  ember-multi-network-stub.o [20]
emCurrentRadioNetworkEvent
                        0x2000'b834     0x8  Data  Gb  ember-multi-network-stub.o [20]
emCurrentRadioNetworkHandler
                           0x1'7e93    0x1a  Code  Gb  ember-multi-network-stub.o [20]
emCurrentRssi           0x2000'c092     0x1  Data  Gb  network.o [27]
emCurrentSender         0x2000'b856     0x2  Data  Gb  zigbee-dispatch.o [27]
emCurrentSenderEui64    0x2000'b85c     0x4  Data  Gb  zigbee-dispatch.o [27]
emCurrentZdoRequestStatus
                        0x2000'd7d3     0x1  Data  Gb  application-support.o [27]
emCustomMacFilterMatchList
                        0x2000'c18c     0x4  Data  Gb  mac-header.o [27]
emDeactivateOrDeleteActiveRoute
                           0x2'2103    0x50  Code  Gb  route-table.o [27]
emDebugApiTrace            0x2'4801     0x6  Code  Gb  debug-extended-stub.o [10]
emDebugInit                0x1'f66f     0x4  Code  Gb  debug-platform-stub.o [9]
emDebugPowerDown           0x1'f673     0x2  Code  Gb  debug-platform-stub.o [9]
emDebugPowerUp             0x1'f675     0x2  Code  Gb  debug-platform-stub.o [9]
emDebugReceiveTick         0x1'fa7b     0x2  Code  Gb  debug-stub.o [9]
emDebugResetInfo           0x1'fa7f     0x2  Code  Gb  debug-stub.o [9]
emDebugStats               0x2'47ff     0x2  Code  Gb  debug-extended-stub.o [10]
emDecimalStringWrite         0x9165    0x62  Code  Gb  ember-printf.o [26]
emDecrementPanConflictMeter
                           0x2'5891     0xc  Code  Gb  management.o [27]
emDefaultSecurityLevel  0x2000'6870     0x1  Data  Gb  ember-configuration.o [26]
emDefaultStackProfile   0x2000'686f     0x1  Data  Gb  ember-configuration.o [26]
emDeleteRouteTableEntry
                           0x2'1f91    0x10  Code  Gb  route-table.o [27]
emDequePollingNetwork      0x1'7fbb     0x4  Code  Gb  ember-multi-network-stub.o [20]
emDescriptorCapability  0x2000'd7a2     0x1  Data  Gb  zigbee-device.o [27]
emDetectIdConflict         0x2'8b91    0xd4  Code  Gb  random-id.o [27]
emDeviceJoiningSecurityHandler
                           0x2'cdc1   0x134  Code  Gb  trust-center-util.o [23]
emDiscoveryTable        0x2000'6738     0x4  Data  Gb  ember-configuration.o [26]
emDiscoveryTableSize    0x2000'6863     0x1  Data  Gb  ember-configuration.o [26]
emDoesSecurityPolicyAllowAppKeyRequests
                           0x2'3ac7     0x4  Code  Gb  cbke-crypto-engine-stub.o [8]
emDsaSignAndSendMessage
                           0x2'f2eb     0x4  Code  Gb  cbke-crypto-engine-dsa-sign-stub.o [5]
emEnableApplicationCurrentNetwork
                           0x1'7f0f     0x2  Code  Gb  ember-multi-network-stub.o [20]
emEnableRadioNetworkSwitch
                           0x1'7eff     0x6  Code  Gb  ember-multi-network-stub.o [20]
emEncryptBytes             0x3'1587    0x46  Code  Gb  crypto.o [27]
emEncryptPayload           0x3'14ad    0xda  Code  Gb  crypto.o [27]
emEndDeviceBindLibraryStatus
                           0x3'ac94     0x1  Data  Gb  end-device-bind-stub.o [12]
emEndDeviceChildCount   0x2000'd7d5     0x1  Data  Gb  child.o [27]
emEndDeviceTimeout      0x2000'6760     0x4  Data  Gb  ember-configuration.o [26]
emEnergyScanResultCallback
                        0x2000'bf84     0x4  Data  Gb  scan.o [27]
emEnhancedBeaconRequestLibraryStatus
                           0x3'ac90     0x1  Data  Gb  enhanced-beacon-request-stub.o [28]
emEraseChild               0x2'4e0f    0x2a  Code  Gb  child.o [27]
emEraseChildDutyCycle      0x3'32cd     0x2  Code  Gb  ember-duty-cycle-stub.o [27]
emEraseChildTable          0x2'4e39    0x34  Code  Gb  child.o [27]
emEraseChildTableOnJoin
                        0x2000'62e0     0x1  Data  Gb  association.o [27]
emEventControlGetRemainingMS
                             0xaf9b    0x28  Code  Gb  event-control.o [27]
emEventControlSetActive
                             0xaf6d    0x14  Code  Gb  event-control.o [27]
emEventControlSetDelayMS
                             0xaf81    0x1a  Code  Gb  event-control.o [27]
emExtendJoinTimeout        0x1'64b1    0x36  Code  Gb  association.o [27]
emFastLinkStatusCount   0x2000'd7bc     0x1  Data  Gb  neighbor.o [27]
emFetchInt32u              0x2'6501    0x2a  Code  Gb  byte-utilities.o [27]
emFillRouteCommandData     0x3'1c97    0x6a  Code  Gb  route-discovery.o [27]
emFindAddressByEui64       0x1'ef2b    0x88  Code  Gb  address-table.o [27]
emFindAddressByNodeId      0x1'efb3    0xa6  Code  Gb  address-table.o [27]
emFindBroadcastTableEntry
                           0x2'1b83     0x4  Code  Gb  broadcast.o [27]
emFindChild                0x2'4c21    0x18  Code  Gb  child.o [27]
emFindChildIndex           0x2'49e5     0xa  Code  Gb  child.o [27]
emFindEbrPowerByEui64      0x2'd46b     0x2  Code  Gb  enhanced-beacon-request-stub.o [28]
emFindEmptyDiscoveryTableEntry
                           0x2'1fef     0xa  Code  Gb  route-table.o [27]
emFindMulticastBinding       0xdc29    0x5a  Code  Gb  binding-table.o [2]
emFindNeighborByEui64      0x1'02a7    0x18  Code  Gb  neighbor.o [27]
emFindNeighborIndexByEui64
                           0x1'02cd    0x36  Code  Gb  neighbor.o [27]
emFindOrAddNeighbor        0x1'054b    0x66  Code  Gb  neighbor.o [27]
emFindOrCreateRouteTableEntry
                           0x2'1ff9    0xa0  Code  Gb  route-table.o [27]
emFindRouteTableEntry      0x2'1f87     0xa  Code  Gb  route-table.o [27]
emFindTransientLinkKey     0x3'3691    0x46  Code  Gb  aps-keys-transient.o [23]
emFindUnicastBinding         0xdc83    0x90  Code  Gb  binding-table.o [2]
emFindUnusedActiveScanCompleteHandler
                           0x2'6065    0x40  Code  Gb  scan.o [27]
emFindUnusedComplianceScanNetworkFoundHandler
                           0x2'602b     0x4  Code  Gb  scan.o [27]
emFindUnusedEnergyScanCompleteHandler
                           0x2'6135    0x84  Code  Gb  scan.o [27]
emFindUnusedEnergyScanResultHandler
                           0x2'60f1    0x44  Code  Gb  scan.o [27]
emFindUnusedNetworkFoundHandler
                           0x2'602f    0x2e  Code  Gb  scan.o [27]
emFindUnusedPanId          0x2'61b9    0x58  Code  Gb  scan.o [27]
emFindUnusedPanIdCompleted
                           0x2'6013    0x18  Code  Gb  scan.o [27]
emFindUnusedStartActiveScan
                           0x2'60a5    0x4c  Code  Gb  scan.o [27]
emFindWildcardTransientLinkKey
                           0x3'3921    0x4a  Code  Gb  aps-keys-transient.o [23]
emFindZdoPayload           0x2'c02d    0x28  Code  Gb  zigbee-device-util.o [27]
emFinishJoinFailure        0x1'670f    0x2c  Code  Gb  association.o [27]
emFirstJoin             0x2000'6886     0x1  Data  Gb  child-handling.o [27]
emForgetBindingShortId       0xd9e9    0x46  Code  Gb  binding-table.o [2]
emForgetShortId            0x1'eebf    0x3a  Code  Gb  address-table.o [27]
emFragmentDelayMs       0x2000'd7cd     0x1  Data  Gb  ember-configuration.o [26]
emFrameCounterIndex        0x2'556d    0x24  Code  Gb  zigbee-neighbor.o [27]
emFrameCounterIndexFromEui64
                           0x2'5641    0xb4  Code  Gb  zigbee-neighbor.o [27]
emFrameCountersTable    0x2000'674c     0x4  Data  Gb  ember-configuration.o [26]
emGetActiveAlwaysOnNetworkIndex
                           0x1'7ead    0x1a  Code  Gb  ember-multi-network-stub.o [20]
emGetActiveCoordinatorOrRouterNetworkIndex
                           0x1'7f37    0x1c  Code  Gb  ember-multi-network-stub.o [20]
emGetApplicationPayload
                           0x2'652d    0xa4  Code  Gb  zigbee-packet-header.o [27]
emGetApsFrameCounter       0x2'f30d     0x2  Code  Gb  aps-encryption.o [23]
emGetCurrentNetworkIndex
                           0x1'7f11     0x4  Code  Gb  ember-multi-network-stub.o [20]
emGetCurrentRadioNetworkIndex
                           0x1'7f15     0x4  Code  Gb  ember-multi-network-stub.o [20]
emGetKeyFromInstallCode
                           0x3'3a19    0x62  Code  Gb  install-code-tokens.o [15]
emGetKeyTableEntry         0x3'348b     0x4  Code  Gb  aps-keys-full-stub.o [24]
emGetLinkKey               0x2'5165   0x124  Code  Gb  aps-keys.o [23]
emGetLocalCapabilities     0x1'7cb1     0xc  Code  Gb  association.o [27]
emGetMacDataAddress        0x2'6319    0x20  Code  Gb  packet-header.o [27]
emGetMinRejoinPeriodMillisec
                           0x2'786b     0x6  Code  Gb  aps-security.o [23]
emGetNetworkKeys           0x2'7767    0x20  Code  Gb  aps-security.o [23]
emGetNetworkManagementState
                           0x2'5775    0x26  Code  Gb  management.o [27]
emGetNewPowerCalculatedUsingLpd
                           0x2'625b     0xa  Code  Gb  zdo-r22-stub.o [28]
emGetNextScanChannel       0x3'2591    0x24  Code  Gb  zll-interpan.o [29]
emGetNwkUpdateId           0x2'579b    0x10  Code  Gb  management.o [27]
emGetParentNwkInformation
                           0x2'ba29     0x6  Code  Gb  child-handling.o [27]
emGetPhyInterfaceByNodeId
                             0xcfbd     0xe  Code  Gb  ember-stack-common.o [27]
emGetPhyRadioChannel       0x1'bb0b     0x8  Code  Gb  phy.o [27]
emGetPhyRadioPower         0x1'bb13    0x1e  Code  Gb  phy.o [27]
emGetPreconfiguredKey      0x2'5091    0x1c  Code  Gb  aps-keys.o [23]
emGetRadioNodeId           0x1'7f85     0x8  Code  Gb  ember-multi-network-stub.o [20]
emGetRadioPanId            0x1'7f8d     0x8  Code  Gb  ember-multi-network-stub.o [20]
emGetRouteTableEntryIndex
                           0x2'1f57    0x30  Code  Gb  route-table.o [27]
emGetSecurityFrameCounter
                           0x3'1291     0x2  Code  Gb  crypto.o [27]
emGetTrustCenterEui64      0x2'50b9    0x3e  Code  Gb  aps-keys.o [23]
emGetTxPowerMode           0x1'bef1     0x8  Code  Gb  phy.o [27]
emGetUpdateTcLinkKeyState
                           0x2'5533     0x6  Code  Gb  aps-keys.o [23]
emGetUpgradeFileDestinationLength
                           0x1'ccfd    0x20  Code  Gb  ota-storage-common.o [26]
emGetZDOConfigurationMode
                           0x2'c585     0x6  Code  Gb  zigbee-device-util.o [27]
emGetZigbeeBinding           0xdd13    0x16  Code  Gb  binding-table.o [2]
emGetZigbeeEventNetworkIndex
                           0x1'7f07     0x4  Code  Gb  ember-multi-network-stub.o [20]
emGoToNextScanChannel      0x3'25b5    0x1c  Code  Gb  zll-interpan.o [29]
emGpDuplicateEvent      0x2000'c04c     0x8  Data  Gb  gp-stub.o [13]
emGpDuplicateEventHandler
                           0x2'd495     0x2  Code  Gb  gp-stub.o [13]
emGpIncomingMessageHandler
                           0x2'd48b     0x2  Code  Gb  gp-stub.o [13]
emGpInit                   0x2'd487     0x4  Code  Gb  gp-stub.o [13]
emGpMacFilterMatchList  0x2000'c190     0x4  Data  Gb  mac-header.o [27]
emGpTransmitComplete       0x2'd499     0x4  Code  Gb  gp-stub.o [13]
emGpTxEvent             0x2000'c044     0x8  Data  Gb  gp-stub.o [13]
emGpTxEventHandler         0x2'd493     0x2  Code  Gb  gp-stub.o [13]
emGpWriteIncomingFCEvent
                        0x2000'c054     0x8  Data  Gb  gp-stub.o [13]
emGpWriteIncomingFCEventHandler
                           0x2'd497     0x2  Code  Gb  gp-stub.o [13]
emHandleBindUnbindRequests
                           0x3'7a49    0xa8  Code  Gb  zdo-binding-table.o [2]
emHandleBindingTableRequest
                           0x3'7af1   0x106  Code  Gb  zdo-binding-table.o [2]
emHandleChildIdConflict
                           0x2'8c91    0x3c  Code  Gb  random-id.o [27]
emHandleEndDeviceBindRequest
                           0x3'474d     0x4  Code  Gb  end-device-bind-stub.o [12]
emHandleIeeeJoiningListRequest
                           0x2'6251     0x2  Code  Gb  zdo-r22-stub.o [28]
emHandleLeaveCommand         0xe635    0xfa  Code  Gb  leave.o [27]
emHandleNwkEnhancedUpdateRequest
                           0x2'2ded   0x190  Code  Gb  zdo-channel.o [27]
emHandleRouteCommand       0x3'1edd   0x2d6  Code  Gb  route-discovery.o [27]
emHandleRouteError         0x3'2f8f    0x8a  Code  Gb  route-error.o [27]
emHandleSleepyRequest      0x1'eb73   0x11e  Code  Gb  application-support.o [27]
emHavePendingRetryMessages
                           0x2'469b     0xa  Code  Gb  retry.o [27]
emHaveTransientLinkKeys
                           0x3'3685     0xc  Code  Gb  aps-keys-transient.o [23]
emHaveTrustCenterLinkKey
                           0x2'529d    0x16  Code  Gb  aps-keys.o [23]
emHeaderApsPayloadIndex
                           0x2'68ab    0x18  Code  Gb  zigbee-packet-header.o [27]
emHeaderGetInt16u          0x2'6275    0x12  Code  Gb  packet-header.o [27]
emHeaderGetInt8u           0x2'62ab     0xc  Code  Gb  packet-header.o [27]
emHeaderGetNetworkIndex
                           0x2'62ff     0xa  Code  Gb  packet-header.o [27]
emHeaderMacInfoField       0x2'62eb     0x4  Code  Gb  packet-header.o [27]
emHeaderMacInfoPhyIndex
                           0x2'62df     0xc  Code  Gb  packet-header.o [27]
emHeaderNetworkPayloadIndex
                           0x2'67af    0x24  Code  Gb  zigbee-packet-header.o [27]
emHeaderSetInt16u          0x2'6287    0x16  Code  Gb  packet-header.o [27]
emHeaderSetInt8u           0x2'629d     0xe  Code  Gb  packet-header.o [27]
emHeaderSetMacInfoField
                           0x2'62ef     0x6  Code  Gb  packet-header.o [27]
emHeaderSetStackPrivate
                           0x2'6309    0x10  Code  Gb  packet-header.o [27]
emHoldMessageBuffer        0x1'0b23    0x1c  Code  Gb  packet-buffer.o [27]
emIeeeAddressRequest       0x2'c1d9    0x10  Code  Gb  zigbee-device-util.o [27]
emIeeeAddressRequestToTarget
                           0x2'c1a5    0x34  Code  Gb  zigbee-device-util.o [27]
emInInitialBroadcastTimeout
                        0x2000'c09e     0x1  Data  Gb  broadcast.o [27]
emInInitialRouteRequestTimeout
                        0x2000'd7a9     0x1  Data  Gb  route-table.o [27]
emInUseAsNextHop           0x2'1e09    0x32  Code  Gb  route-table.o [27]
emIncomingApsFrameCounters
                        0x2000'676c     0x4  Data  Gb  ember-configuration.o [26]
emInitEui64                0x2'ee1d    0x18  Code  Gb  eui64.o [27]
emInitializeAddressTable
                           0x1'ee0d    0x1a  Code  Gb  address-table.o [27]
emInitializeBindingTable
                             0xddd5    0x44  Code  Gb  binding-table.o [2]
emInitializeBroadcast      0x2'1ca5    0x30  Code  Gb  broadcast.o [27]
emInitializeCbke           0x2'13e1     0x2  Code  Gb  cbke-crypto-engine-163k1-stub.o [3]
emInitializeCbke283k1      0x2'13e7     0x2  Code  Gb  cbke-crypto-engine-283k1-stub.o [4]
emInitializeChild          0x2'49ef    0xa0  Code  Gb  child.o [27]
emInitializeIdAssignment
                           0x2'8a75    0x62  Code  Gb  random-id.o [27]
emInitializeRouteTableEntry
                           0x2'1cfd    0x46  Code  Gb  route-table.o [27]
emInitializeTableRouting
                           0x2'1d43    0x4c  Code  Gb  route-table.o [27]
emInitializeTrustCenterSecurity
                           0x2'77a9    0x1c  Code  Gb  aps-security.o [23]
emInstallCodeLibraryStatus
                           0x3'acae     0x1  Data  Gb  install-code-tokens.o [15]
emIsBlacklistedId          0x2'8d5d    0x36  Code  Gb  random-id.o [27]
emIsBufferSizeOk           0x2'6633    0x14  Code  Gb  zigbee-packet-header.o [27]
emIsConcentrator           0x2'2153    0x24  Code  Gb  route-table.o [27]
emIsCurrentNetworkStackEmpty
                           0x1'7f0b     0x4  Code  Gb  ember-multi-network-stub.o [20]
emIsEndDeviceChild         0x2'4ce7    0x12  Code  Gb  child.o [27]
emIsGpIdConflict           0x2'd48f     0x4  Code  Gb  gp-stub.o [13]
emIsInUnicastTable         0x2'8a11    0x2a  Code  Gb  unicast-table.o [27]
emIsMacIdle                0x2'4415    0x18  Code  Gb  upper-mac.o [27]
emIsNetworkAlwaysOn        0x1'7edf    0x18  Code  Gb  ember-multi-network-stub.o [20]
emIsNetworkJoined          0x1'7ec7    0x18  Code  Gb  ember-multi-network-stub.o [20]
emIsNodeInBroadcastTable
                           0x2'1b87    0x10  Code  Gb  broadcast.o [27]
emIsNodeInRoutingTables
                           0x2'2099    0x1a  Code  Gb  route-table.o [27]
emIsNullKey                0x2'77a1     0x8  Code  Gb  aps-security.o [23]
emIsParentKeepAliveSupportKnown
                           0x2'ba1d     0xc  Code  Gb  child-handling.o [27]
emIsSleepyChild            0x2'4cc7    0x20  Code  Gb  child.o [27]
emIsStateJoiningOrRejoining
                             0xcf7f    0x18  Code  Gb  ember-stack-common.o [27]
emIsTimeoutConfigurable
                           0x2'ba79    0x16  Code  Gb  child-handling.o [27]
emIsTokenDataInitialized
                           0x2'5051    0x24  Code  Gb  aps-keys.o [23]
emIsWellKnownKey             0xeb9d    0x2e  Code  Gb  network-steering.o [26]
emIsZigbeeStateUnauthenticated
                           0x1'fb39    0x1a  Code  Gb  network.o [27]
emJitTransmitComplete      0x3'1911    0x6c  Code  Gb  jit.o [27]
emJoinNetworkInternal      0x1'67d3   0x152  Code  Gb  association.o [27]
emJoinableNetworkFoundCallback
                        0x2000'bf94     0x4  Data  Gb  scan.o [27]
emLeaveCommandSent           0xe83d    0x42  Code  Gb  leave.o [27]
emLeaveNetworkQuietly        0xe57d    0x32  Code  Gb  leave.o [27]
emLinkQualityToCost        0x1'07f3    0x22  Code  Gb  neighbor.o [27]
emLinkQualityToCostHysteresis
                           0x1'0769    0x64  Code  Gb  neighbor.o [27]
emLoadKeyIntoCore          0x3'3a85     0xa  Code  Gb  aes.o [27]
emLoadNetworkKey           0x2'7739    0x2e  Code  Gb  aps-security.o [23]
emLocalEui64            0x2000'b84c     0x8  Data  Gb  eui64.o [27]
emLocalRadioNodeId      0x2000'659c     0x2  Data  Lc  phy.o [27]
emLocalRadioPanId       0x2000'659e     0x2  Data  Lc  phy.o [27]
emLongIdDataPendingForDevice
                           0x2'284d    0x3a  Code  Gb  mac-indirect.o [27]
emLookupChildEui64ById     0x2'4cf9    0x20  Code  Gb  child.o [27]
emLowerMacCancelSymbolTimer
                           0x2'247f     0x8  Code  Gb  lower-mac-efr32.o [27]
emLowerMacEvent         0x2000'c130     0x8  Data  Gb  lower-mac-efr32.o [27]
emLowerMacEventHandler     0x2'2587    0x30  Code  Gb  lower-mac-efr32.o [27]
emLowerMacGetRadioIdleMode
                           0x2'25c7     0x4  Code  Gb  lower-mac-efr32.o [27]
emLowerMacIncomingQueueIsEmpty
                           0x2'25cb    0x1c  Code  Gb  lower-mac-efr32.o [27]
emLowerMacInit             0x2'2225    0x1a  Code  Gb  lower-mac-efr32.o [27]
emLowerMacIsExpectingData
                           0x2'25f5    0x10  Code  Gb  lower-mac-efr32.o [27]
emLowerMacIsIdle           0x2'25b7     0xc  Code  Gb  lower-mac-efr32.o [27]
emLowerMacPurgeIncomingQueue
                           0x2'25e7     0x6  Code  Gb  lower-mac-efr32.o [27]
emLowerMacScheduleSymbolTimer
                           0x2'2469    0x16  Code  Gb  lower-mac-efr32.o [27]
emLowerMacSend             0x2'242b    0x3a  Code  Gb  lower-mac-efr32.o [27]
emLowerMacSetRadioIdleMode
                           0x2'25c3     0x4  Code  Gb  lower-mac-efr32.o [27]
emLowerMacSymbolTimerExpiredHandlerIsr
                           0x2'4395    0x18  Code  Gb  upper-mac.o [27]
emLowerMacTick             0x2'23ad     0x2  Code  Gb  lower-mac-efr32.o [27]
emLowerMacsAreIdle         0x1'fab1     0x4  Code  Gb  mac-dispatch.o [27]
emLpdEvent              0x2000'c03c     0x8  Data  Gb  child-handling.o [27]
emLpdEventHandler          0x2'bc7f    0x32  Code  Gb  child-handling.o [27]
emMacAssociateRequest      0x2'cd53    0x44  Code  Gb  command.o [27]
emMacAssociateRespond      0x2'cd05    0x46  Code  Gb  command.o [27]
emMacCancelPoll            0x2'4001     0xe  Code  Gb  upper-mac.o [27]
emMacCancelPolls           0x1'faa9     0x4  Code  Gb  mac-dispatch.o [27]
emMacCancelSymbolTimer     0x2'43ad    0x12  Code  Gb  upper-mac.o [27]
emMacCheckRadio            0x2'442d    0x18  Code  Gb  upper-mac.o [27]
emMacDataPollSuperRetriesEvent
                        0x2000'bfb0     0x8  Data  Gb  network.o [27]
emMacDataPollSuperRetriesEventHandler
                           0x2'1381    0x2a  Code  Gb  network.o [27]
emMacDestinationMode       0x2'6399    0x22  Code  Gb  packet-header.o [27]
emMacDestinationPointer
                           0x2'63c3    0x1e  Code  Gb  packet-header.o [27]
emMacFilterMatchCheck      0x3'2307   0x114  Code  Gb  mac-header.o [27]
emMacHeaderGetInfoElementsLength
                           0x2'd439    0x18  Code  Gb  mac-info-element-parsing-stub.o [28]
emMacHeaderLength          0x2'6361    0x38  Code  Gb  packet-header.o [27]
emMacIncomingQueueIsEmpty
                           0x1'fa81     0x4  Code  Gb  mac-dispatch.o [27]
emMacIndirectCheckPollFlags
                           0x2'2ab1   0x110  Code  Gb  mac-indirect.o [27]
emMacIndirectEvent      0x2000'c01c     0x8  Data  Gb  mac-indirect.o [27]
emMacIndirectEventHandler
                           0x2'2a7d    0x2e  Code  Gb  mac-indirect.o [27]
emMacIndirectInit          0x2'27ad    0x14  Code  Gb  mac-indirect.o [27]
emMacIndirectProcessPollIsr
                           0x2'2887    0xf4  Code  Gb  mac-indirect.o [27]
emMacIndirectPurge         0x2'2aab     0x6  Code  Gb  mac-indirect.o [27]
emMacIndirectTransmitComplete
                           0x2'29c9    0xb4  Code  Gb  mac-indirect.o [27]
emMacInfoLowByte           0x2'62f5     0xa  Code  Gb  packet-header.o [27]
emMacInit                  0x1'fa8d    0x18  Code  Gb  mac-dispatch.o [27]
emMacIsEmpty               0x1'fa89     0x4  Code  Gb  mac-dispatch.o [27]
emMacKickstart             0x2'3e7b     0x8  Code  Gb  upper-mac.o [27]
emMacMakeMessage           0x2'c8a7    0x24  Code  Gb  command.o [27]
emMacMakeMessageWithInfoElement
                           0x2'c8cb   0x150  Code  Gb  command.o [27]
emMacMakePollCommand       0x2'c833    0x64  Code  Gb  command.o [27]
emMacMaxAckRetries      0x2000'688f     0x1  Data  Gb  lower-mac-efr32.o [27]
emMacOutgoingDequeue       0x2'3e41    0x3a  Code  Gb  upper-mac.o [27]
emMacPacketSendCompleteCallback
                           0x2'3d4d    0x58  Code  Gb  upper-mac.o [27]
emMacParseInfoElementsInPacket
                           0x2'd41d    0x1c  Code  Gb  mac-info-element-parsing-stub.o [28]
emMacPassthroughMessageType
                           0x3'229f    0x68  Code  Gb  mac-header.o [27]
emMacPrepareTransmitBuffer
                           0x2'3aff   0x20a  Code  Gb  upper-mac.o [27]
emMacPurgeIncomingQueue
                           0x1'faad     0x4  Code  Gb  mac-dispatch.o [27]
emMacReallySuspendTransmission
                           0x2'3d09    0x3e  Code  Gb  upper-mac.o [27]
emMacReceiveCallback       0x2'400f   0x1dc  Code  Gb  upper-mac.o [27]
emMacRequestPoll           0x2'3fe9    0x18  Code  Gb  upper-mac.o [27]
emMacRetries            0x2000'd7d9     0x1  Data  Gb  network.o [27]
emMacScanDwell             0x2'43c1    0x28  Code  Gb  upper-mac.o [27]
emMacScanType           0x2000'687c     0x1  Data  Gb  scan.o [27]
emMacScheduleSymbolTimer
                           0x2'4383    0x12  Code  Gb  upper-mac.o [27]
emMacSendBeacon            0x2'cad1    0xc2  Code  Gb  command.o [27]
emMacSendBeaconRequest     0x2'c7fd    0x36  Code  Gb  command.o [27]
emMacSendCoordinatorRealignment
                           0x2'cc9d    0x68  Code  Gb  command.o [27]
emMacSendEnhancedBeacon
                           0x2'cb9d    0xdc  Code  Gb  command.o [27]
emMacSendMessage           0x2'ca85    0x28  Code  Gb  command.o [27]
emMacSendMessageWithInfoElement
                           0x2'ca1b    0x6a  Code  Gb  command.o [27]
emMacSendOrphanNotification
                           0x2'c7c5    0x38  Code  Gb  command.o [27]
emMacSetPermitAssociation
                           0x2'caad     0x6  Code  Gb  command.o [27]
emMacSetRadioIdleMode      0x2'43e9    0x2c  Code  Gb  upper-mac.o [27]
emMacShortDestination      0x2'63e1     0x8  Code  Gb  packet-header.o [27]
emMacShortSource           0x2'6449     0x6  Code  Gb  packet-header.o [27]
emMacSourceMode            0x2'63e9    0x22  Code  Gb  packet-header.o [27]
emMacSourcePointer         0x2'640b    0x3e  Code  Gb  packet-header.o [27]
emMacSubmit                0x1'fa85     0x4  Code  Gb  mac-dispatch.o [27]
emMacSubmitIndirect        0x2'27c1    0x8c  Code  Gb  mac-indirect.o [27]
emMacSuspendTransmission
                           0x2'3d47     0x4  Code  Gb  upper-mac.o [27]
emMacToNetworkQueue     0x2000'6890     0x1  Data  Gb  mac-dispatch.o [27]
emMacTransmitCompleteCallback
                           0x2'0ad9    0xce  Code  Gb  network.o [27]
emMakeBroadcastBitmask     0x1'0703    0x5a  Code  Gb  neighbor.o [27]
emMakeHeader               0x2'6457    0x56  Code  Gb  packet-header.o [27]
emMakeMessage              0x1'0f1d    0x10  Code  Gb  packet-buffer.o [27]
emMakeMessageUsingVaList
                           0x1'0ec7    0x36  Code  Gb  packet-buffer.o [27]
emMakeNetworkStatusMessage
                           0x3'2f63    0x2c  Code  Gb  route-error.o [27]
emMakeStackJitMessage      0x3'18a1    0x70  Code  Gb  jit.o [27]
emMakeZigbeeCommandHeader
                           0x2'6773    0x3c  Code  Gb  zigbee-packet-header.o [27]
emMakeZigbeeHeader         0x2'6661   0x112  Code  Gb  zigbee-packet-header.o [27]
emManufacturerCode      0x2000'6832     0x2  Data  Gb  zigbee-device.o [27]
emMarkTaskActive             0xb163     0xe  Code  Gb  event-control.o [27]
emMaxApsUnicastMessages
                        0x2000'686c     0x1  Data  Gb  ember-configuration.o [26]
emMaxEndDeviceChildren  0x2000'6871     0x1  Data  Gb  ember-configuration.o [26]
emMaxHops               0x2000'6872     0x1  Data  Gb  ember-configuration.o [26]
emMaxPhyToMacQueueLength
                        0x2000'684a     0x2  Data  Gb  lower-mac-efr32.o [27]
emMaximumApsPayloadWithOptions
                           0x1'eaeb    0x20  Code  Gb  application-support.o [27]
emMaximumIncomingTransferSize
                        0x2000'6836     0x2  Data  Gb  zigbee-device.o [27]
emMaximumOutgoingTransferSize
                        0x2000'6838     0x2  Data  Gb  zigbee-device.o [27]
emMaybeWakeupApsRetry      0x2'3387    0x24  Code  Gb  aps-retry.o [27]
emMemoryByteCompare          0xcf5b    0x1e  Code  Gb  ember-stack-common.o [27]
emMessageBufferLengths  0x2000'670c     0x4  Data  Gb  ember-configuration.o [26]
emMessageBufferQueueAdd
                           0x1'10a9    0x2a  Code  Gb  packet-buffer.o [27]
emMessageBufferQueueIsEmpty
                           0x1'1165     0xe  Code  Gb  packet-buffer.o [27]
emMessageBufferQueuePurge
                           0x1'1173    0x16  Code  Gb  packet-buffer.o [27]
emMessageBufferQueueRemove
                           0x1'10ff    0x42  Code  Gb  packet-buffer.o [27]
emMessageBufferQueueRemoveHead
                           0x1'10d3    0x2c  Code  Gb  packet-buffer.o [27]
emMessageBufferReferenceCounts
                        0x2000'6710     0x4  Data  Gb  ember-configuration.o [26]
emMfgSecurityConfigModifyKey
                           0x3'345d    0x2e  Code  Gb  security-config-mfg-3xx.o [23]
emMfglibMode            0x2000'6a8f     0x1  Data  Gb  phy.o [27]
emMfglibRxCallback      0x2000'c008     0x4  Data  Gb  upper-mac.o [27]
emMfglibTransmitComplete
                        0x2000'6a90     0x1  Data  Gb  phy.o [27]
emModifySecurityState      0x2'4ff9     0x6  Code  Gb  aps-keys.o [23]
emMsSinceLastSuccessfulPoll
                           0x2'2785     0x8  Code  Gb  child-aging.o [27]
emMtorrFlowControl      0x2000'6899     0x1  Data  Gb  route-discovery.o [27]
emMultiNetworkLibraryStatus
                           0x3'ac8e     0x1  Data  Gb  ember-multi-network-stub.o [20]
emMultiPhyInit             0x2'6271     0x4  Code  Gb  ember-multi-phy-stub.o [27]
emNeedsFurtherTransmissions
                           0x2'11cb    0x30  Code  Gb  network.o [27]
emNeighborCost             0x1'07cd    0x26  Code  Gb  neighbor.o [27]
emNeighborData          0x2000'6748     0x4  Data  Gb  ember-configuration.o [26]
emNeighborEntryIncomingCost
                           0x1'0815    0x2c  Code  Gb  neighbor.o [27]
emNeighborEntryIndex       0x1'0303    0x14  Code  Gb  neighbor.o [27]
emNeighborEntrySetAge      0x1'0961     0xe  Code  Gb  neighbor.o [27]
emNeighborEntrySetIncomingCost
                           0x1'0873     0xe  Code  Gb  neighbor.o [27]
emNeighborEntrySetOutgoingCost
                           0x1'0881     0xc  Code  Gb  neighbor.o [27]
emNeighborEvent         0x2000'ae20     0x8  Data  Gb  neighbor.o [27]
emNeighborEventHandler     0x1'088d    0x68  Code  Gb  neighbor.o [27]
emNeighborExchangeEvent
                        0x2000'c094     0x8  Data  Gb  neighbor-exchange.o [27]
emNeighborExchangeEventHandler
                           0x2'89b3    0x40  Code  Gb  neighbor-exchange.o [27]
emNeighborFindEntry        0x1'0317    0x1e  Code  Gb  neighbor.o [27]
emNeighborFirstCurrentKeyUse
                           0x2'5713    0x44  Code  Gb  zigbee-neighbor.o [27]
emNeighborIdConflict       0x2'8c6b    0x26  Code  Gb  random-id.o [27]
emNeighborInit             0x1'0237    0x3a  Code  Gb  neighbor.o [27]
emNeighborProcessQuality
                           0x1'0209    0x2e  Code  Gb  neighbor.o [27]
emNetworkAddressRequest
                           0x2'c26f    0x28  Code  Gb  zigbee-device-util.o [27]
emNetworkCheckIncomingQueue
                           0x2'0171    0x4e  Code  Gb  network.o [27]
emNetworkDescriptor     0x2000'6744     0x4  Data  Gb  ember-configuration.o [26]
emNetworkDescriptorInit
                           0x1'7dc1    0x7c  Code  Gb  ember-multi-network-stub.o [20]
emNetworkEncrypt           0x1'ff57    0x7a  Code  Gb  network.o [27]
emNetworkFoundCallback  0x2000'bf88     0x4  Data  Gb  scan.o [27]
emNetworkManagementEvent
                        0x2000'bfb8     0x8  Data  Gb  management.o [27]
emNetworkManagementEventHandler
                           0x2'589d    0x64  Code  Gb  management.o [27]
emNetworkManagementInit
                           0x2'5765    0x10  Code  Gb  management.o [27]
emNetworkProcessIncoming
                           0x2'01bf   0x148  Code  Gb  network.o [27]
emNetworkSend              0x1'fb53    0x26  Code  Gb  network.o [27]
emNetworkSendBroadcast     0x1'fbb5    0x94  Code  Gb  network.o [27]
emNetworkSendUnicast       0x1'fc79   0x200  Code  Gb  network.o [27]
emNetworkSubmitUnicast     0x1'fed3     0x2  Code  Gb  network.o [27]
emNetworkTimeoutRequestEvent
                        0x2000'c030     0x8  Data  Gb  child-handling.o [27]
emNetworkTimeoutRequestEventHandler
                           0x2'bc35    0x4a  Code  Gb  child-handling.o [27]
emNetworkToApplicationQueue
                        0x2000'687f     0x1  Data  Gb  network.o [27]
emNetworkTransmitComplete
                           0x2'0bc5   0x23e  Code  Gb  network.o [27]
emNetworkTransmitCompleteCallback
                           0x2'36f9    0x94  Code  Gb  aps-retry.o [27]
emNewBroadcastEntryThreshold
                        0x2000'c09f     0x1  Data  Gb  broadcast.o [27]
emNextApsFrameCounter      0x2'f317    0x1a  Code  Gb  aps-encryption.o [23]
emNodeDescriptorRequest
                           0x2'c187    0x1e  Code  Gb  zigbee-device-util.o [27]
emNormalizeBufferIndex     0x1'0e59    0x18  Code  Gb  packet-buffer.o [27]
emNoteChildChange          0x2'4d23    0x52  Code  Gb  child.o [27]
emNoteIncomingFrameCounter
                           0x2'5631    0x10  Code  Gb  zigbee-neighbor.o [27]
emNoteJoinAuthenticated
                           0x1'6599    0xca  Code  Gb  association.o [27]
emNoteJoinFailureForTimeout
                           0x1'6475     0x8  Code  Gb  association.o [27]
emNoteJoiningChange        0x1'7245    0x1e  Code  Gb  association.o [27]
emNoteLinkKeyRequest       0x1'647d    0x22  Code  Gb  association.o [27]
emNoteNodeTypeChange       0x1'7fc9     0xa  Code  Gb  ember-multi-network-stub.o [20]
emNoteSleepyDeviceInKeyTable
                           0x3'349b     0x2  Code  Gb  aps-keys-full-stub.o [24]
emNoteSuccessfulPoll       0x2'2773    0x12  Code  Gb  child-aging.o [27]
emNoteUnicastRetryEvent
                           0x2'3239     0x2  Code  Gb  aps-retry.o [27]
emNotifyMacIsIdle          0x2'3d4b     0x2  Code  Gb  upper-mac.o [27]
emOverrideTrustCenterEui64
                           0x2'511f     0x4  Code  Gb  aps-keys.o [23]
emPacketBufferCount     0x2000'685e     0x1  Data  Gb  ember-configuration.o [26]
emPacketBufferData      0x2000'6708     0x4  Data  Gb  ember-configuration.o [26]
emPacketBufferFreeCount
                        0x2000'685f     0x1  Data  Gb  ember-configuration.o [26]
emPacketBufferLinks     0x2000'6714     0x4  Data  Gb  ember-configuration.o [26]
emPacketBufferQueueLinks
                        0x2000'6718     0x4  Data  Gb  ember-configuration.o [26]
emPacketHeaderContents     0x2'62cb    0x14  Code  Gb  packet-header.o [27]
emPacketHeaderOverhead     0x2'62b7    0x14  Code  Gb  packet-header.o [27]
emPacketHeaderPayload      0x1'0ba9    0x1e  Code  Gb  packet-buffer.o [27]
emPacketReceivedInternalIsrCallback
                           0x2'24d5    0x98  Code  Gb  lower-mac-efr32.o [27]
emPacketValidateCheck      0x2'fa11    0x48  Code  Gb  packet-validate.o [21]
emPacketValidateLibrary
                           0x3'acad     0x1  Data  Gb  packet-validate.o [21]
emPacketValidateLibraryInfo
                           0x2'f7ed     0xa  Code  Gb  packet-validate.o [21]
emPanIdConflictReportThreshold
                        0x2000'6874     0x1  Data  Gb  ember-configuration.o [26]
emParentKeepAliveSupportUnknown
                           0x2'ba15     0x8  Code  Gb  child-handling.o [27]
emPhyBandConfig2400MHz     0x3'93f8    0x24  Data  Gb  radio_config_em3xxx_2.4GHz.o [27]
emPhyBands                 0x3'9254     0x4  Data  Lc  phy-config-MHz.o [27]
emPhyCcaLbtConfigArray     0x1'ca44     0x1  Data  Gb  phy.o [27]
emPhyConfigEfr             0x3'9258    0x10  Data  Gb  phy-config-MHz.o [27]
emPhyCurrentBandConfig  0x2000'6aac     0x4  Data  Gb  phy.o [27]
emPhyDcAckSent             0x2'ed29     0x2  Code  Gb  duty-cycle-stub.o [27]
emPhyDcExtendedStatus   0x2000'd7e1     0x1  Data  Lc  duty-cycle-stub.o [27]
emPhyDcGetPktMode          0x2'ece9     0x4  Code  Gb  duty-cycle-stub.o [27]
emPhyDcSendPktAsap         0x2'eced    0x3a  Code  Gb  duty-cycle-stub.o [27]
emPhyDcSendPktFailed       0x2'ed27     0x2  Code  Gb  duty-cycle-stub.o [27]
emPhyDcSetExtendedStatus
                           0x2'ed2d     0x6  Code  Gb  duty-cycle-stub.o [27]
emPhyDcTick                0x2'ed2b     0x2  Code  Gb  duty-cycle-stub.o [27]
emPhyDcTxEvent          0x2000'c138     0x8  Data  Gb  duty-cycle-stub.o [27]
emPhyDcTxEventHandler      0x2'ed45     0x2  Code  Gb  duty-cycle-stub.o [27]
emPhyGetChannelPageForChannel
                           0x1'b875     0xa  Code  Gb  phy.o [27]
emPhyGetPhyChannel         0x1'bbb1    0x40  Code  Gb  phy.o [27]
emPhyRailHandle         0x2000'6aa8     0x4  Data  Gb  phy.o [27]
emPhySetCoordinator        0x1'c3b5    0x22  Code  Gb  phy.o [27]
emPhySetEui64              0x1'c37b    0x24  Code  Gb  phy.o [27]
emPhyTick                  0x1'c79b    0x22  Code  Gb  phy.o [27]
emPickNewId                0x2'8b3d    0x54  Code  Gb  random-id.o [27]
emPickRandomId             0x2'8ad7    0x66  Code  Gb  random-id.o [27]
emPollDelayingEvent     0x2000'b83c     0x8  Data  Gb  ember-multi-network-stub.o [20]
emPollDelayingHandler      0x1'7fc7     0x2  Code  Gb  ember-multi-network-stub.o [20]
emPollPending              0x1'7fbf     0x4  Code  Gb  ember-multi-network-stub.o [20]
emPowerDescriptor       0x2000'6834     0x2  Data  Gb  zigbee-device.o [27]
emPrepareRetryEntryForSubmission
                           0x2'0e21   0x2be  Code  Gb  network.o [27]
emPrepareStoreAndForwardEntryForSubmission
                           0x2'1131    0x9a  Code  Gb  network.o [27]
emPrintfInternal             0x91c7   0x230  Code  Gb  ember-printf.o [26]
emProcessApplicationLinkKey
                           0x3'3497     0x4  Code  Gb  aps-keys-full-stub.o [24]
emProcessIeeeListResponse
                           0x2'6253     0x2  Code  Gb  zdo-r22-stub.o [28]
emProcessIncomingBeacon
                           0x1'734d   0x370  Code  Gb  association.o [27]
emProcessIncomingBroadcast
                           0x2'0861   0x132  Code  Gb  network.o [27]
emProcessJoinRequest       0x1'6bdf   0x190  Code  Gb  association.o [27]
emProcessJoinResponse      0x1'6d79   0x160  Code  Gb  association.o [27]
emProcessLinkPowerDelta
                           0x2'6259     0x2  Code  Gb  zdo-r22-stub.o [28]
emProcessManagementCommand
                           0x2'57df    0xb2  Code  Gb  management.o [27]
emProcessNeighborExchange
                           0x2'8787   0x22c  Code  Gb  neighbor-exchange.o [27]
emProcessNetworkHeader     0x2'11fb    0x88  Code  Gb  network.o [27]
emProcessNetworkTimeoutRequest
                           0x2'bb1f    0x56  Code  Gb  child-handling.o [27]
emProcessNetworkTimeoutResponse
                           0x2'bbc1    0x5c  Code  Gb  child-handling.o [27]
emProcessRequestKey        0x2'd073   0x11e  Code  Gb  trust-center-util.o [23]
emProcessVerifyKey         0x3'372b   0x11c  Code  Gb  aps-keys-transient.o [23]
emProcessZllInterpanStackMessage
                           0x3'2971   0x25e  Code  Gb  zll-interpan.o [29]
emRadioAddressMatchingEnabled
                           0x1'c333     0x8  Code  Gb  phy.o [27]
emRadioAlwaysUseZeroBackoff
                        0x2000'6a95     0x1  Data  Gb  phy.o [27]
emRadioAutoAckEnabled      0x1'c373     0x8  Code  Gb  phy.o [27]
emRadioCalculateLinkQuality
                           0x1'bbfd     0x4  Code  Gb  phy.o [27]
emRadioChannel          0x2000'6584     0x1  Data  Lc  phy.o [27]
emRadioChannelPageInUse
                        0x2000'6a8d     0x1  Data  Lc  phy.o [27]
emRadioCheckRadio          0x1'b759    0x12  Code  Gb  phy.o [27]
emRadioConvertRssiToLqi
                           0x1'bc01    0x24  Code  Lc  phy.o [27]
emRadioEnableAddressMatching
                           0x1'c303    0x30  Code  Gb  phy.o [27]
emRadioEnableAutoAck       0x1'c341    0x28  Code  Gb  phy.o [27]
emRadioEnablePacketTrace
                           0x1'c427    0x18  Code  Gb  phy.o [27]
emRadioEnablePta           0x1'c1a5    0x30  Code  Gb  phy.o [27]
emRadioEnergyDetection     0x1'c2e5    0x1e  Code  Gb  phy.o [27]
emRadioGetEdCcaThreshold
                           0x1'c49f    0x22  Code  Gb  phy.o [27]
emRadioGetIdleMode         0x1'c0ed     0x6  Code  Gb  phy.o [27]
emRadioGetPowerStatus      0x1'c0a7     0x6  Code  Gb  phy.o [27]
emRadioGetRandomNumbers
                           0x1'b73b    0x1e  Code  Gb  phy.o [27]
emRadioInit                0x1'c1e9    0xf0  Code  Gb  phy.o [27]
emRadioIsReceivingFrame
                           0x1'b78d    0x1a  Code  Gb  phy.o [27]
emRadioOkToIdle            0x1'c0c7    0x26  Code  Gb  phy.o [27]
emRadioPowerFl          0x2000'6598     0x2  Data  Lc  phy.o [27]
emRadioPrepareTransmit     0x1'bd0b    0xae  Code  Gb  phy.o [27]
emRadioReceiveCompleteCallback
                           0x2'41eb   0x188  Code  Gb  upper-mac.o [27]
emRadioReceiveMacHeaderCallback
                           0x3'241d   0x15c  Code  Gb  mac-header.o [27]
emRadioSeedRandom          0x1'fa69    0x12  Code  Gb  phy-util.o [27]
emRadioSetEdCcaThreshold
                           0x1'c43f    0x60  Code  Gb  phy.o [27]
emRadioSetIdleMode         0x1'c0f3    0x1c  Code  Gb  phy.o [27]
emRadioSetNodeId           0x1'c3d7    0x28  Code  Gb  phy.o [27]
emRadioSetPanId            0x1'c3ff    0x28  Code  Gb  phy.o [27]
emRadioSetPowerStatus      0x1'c0ad    0x14  Code  Lc  phy.o [27]
emRadioSleep               0x1'befd    0xca  Code  Gb  phy.o [27]
emRadioTransmit            0x1'bdb9   0x130  Code  Gb  phy.o [27]
emRadioTransmitCompleteCallback
                           0x2'2275    0x1c  Code  Gb  lower-mac-efr32.o [27]
emRadioTxAckIsrCallback
                           0x2'256d    0x1a  Code  Gb  lower-mac-efr32.o [27]
emRadioTxPowerMode      0x2000'659a     0x2  Data  Gb  phy.o [27]
emRadioUnpackChipErrors
                           0x1'bbfb     0x2  Code  Gb  phy.o [27]
emRadioWakeUp              0x1'c0a3     0x4  Code  Gb  phy.o [27]
emReadGpTokens             0x2'd48d     0x2  Code  Gb  gp-stub.o [13]
emReadRadioTokens          0x1'7b2d    0x2e  Code  Gb  association.o [27]
emReadSecurityToken        0x2'5015    0x3c  Code  Gb  aps-keys.o [23]
emRealECCLibraryPresent
                           0x2'13dd     0x4  Code  Gb  cbke-crypto-engine-163k1-stub.o [3]
emRealECCLibraryPresent283k1
                           0x2'13e3     0x4  Code  Gb  cbke-crypto-engine-283k1-stub.o [4]
emReallyCopyToLinkedBuffers
                           0x1'0c7b    0x42  Code  Gb  packet-buffer.o [27]
emReallyGetNetworkKey      0x2'73bb    0x2a  Code  Gb  aps-security.o [23]
emReallySendNetworkTimeoutRequest
                           0x2'bac1    0x5e  Code  Gb  child-handling.o [27]
emReallySendRouteRequest
                           0x3'1aa5   0x1f2  Code  Gb  route-discovery.o [27]
emReallyStopScan           0x2'5cf9    0x74  Code  Lc  scan.o [27]
emReconstructDecryptedHeader
                           0x2'65d1    0x36  Code  Gb  zigbee-packet-header.o [27]
emReencryptRetries      0x2000'687b     0x1  Data  Gb  aps-retry.o [27]
emReinitializePacketBuffers
                           0x1'0fd7     0x8  Code  Gb  packet-buffer.o [27]
emReleaseMessageBuffer     0x1'0b3f    0x6a  Code  Gb  packet-buffer.o [27]
emRemoteModifyBinding        0xdd29    0xa0  Code  Gb  binding-table.o [2]
emRemoveEbrPowerAndEui64Entry
                           0x2'd46d     0x2  Code  Gb  enhanced-beacon-request-stub.o [28]
emRemoveNeighbor           0x1'046d    0xc6  Code  Gb  neighbor.o [27]
emRemoveNeighborEui        0x1'05b1    0x3c  Code  Gb  neighbor.o [27]
emRemoveTransientLinkKey
                           0x3'36d7    0x14  Code  Gb  aps-keys-transient.o [23]
emReplaceNeighbor          0x1'053b    0x10  Code  Gb  neighbor.o [27]
emRequestKeyEvent       0x2000'bf38     0x8  Data  Gb  aps-keys.o [23]
emRequestKeyEventHandler
                           0x2'53b3    0x50  Code  Gb  aps-keys.o [23]
emRequestKeyProcessNodeDescriptorResponse
                           0x2'5499    0x94  Code  Gb  aps-keys.o [23]
emRequestKeyTimeout     0x2000'd7d0     0x1  Data  Gb  ember-configuration.o [26]
emRequestKeyTimeoutControl
                           0x2'538d    0x26  Code  Gb  aps-keys.o [23]
emRequestLinkKeyUpdate  0x2000'd7e2     0x1  Data  Gb  aps-keys-transient.o [23]
emRequireLongIdForMovedChildCheck
                           0x2'1aad    0x12  Code  Gb  zll-api.o [29]
emRescheduleNeighborExchange
                           0x2'89f3     0x2  Code  Gb  neighbor-exchange.o [27]
emResetApsFrameCounter     0x2'f331    0x1a  Code  Gb  aps-encryption.o [23]
emResetNegotiatedPowerByEndDevice
                           0x2'626b     0x2  Code  Gb  zdo-r22-stub.o [28]
emResetNwkIncomingFrameCounters
                           0x2'5591    0x24  Code  Gb  zigbee-neighbor.o [27]
emResetNwkOutgoingFrameCounter
                           0x3'129d    0x1e  Code  Gb  crypto.o [27]
emRestoreCurrentNetworkInternal
                           0x1'7f1b     0x2  Code  Gb  ember-multi-network-stub.o [20]
emRetryCancel              0x2'4625    0x5e  Code  Gb  retry.o [27]
emRetryDelayEvent       0x2000'bfc4     0x8  Data  Gb  retry.o [27]
emRetryDelayEventHandler
                           0x2'47f9     0x6  Code  Gb  retry.o [27]
emRetryInit                0x2'46cd    0x28  Code  Gb  retry.o [27]
emRetryIsEmpty             0x2'468b    0x10  Code  Gb  retry.o [27]
emRetryMessageToVerifyTransientLinkKey
                           0x2'7731     0x4  Code  Gb  aps-security.o [23]
emRetryPurge               0x2'46a5    0x28  Code  Gb  retry.o [27]
emRetryQueue            0x2000'6750     0x4  Data  Gb  ember-configuration.o [26]
emRetryQueueSize        0x2000'6868     0x1  Data  Gb  ember-configuration.o [26]
emRetrySubmit              0x2'45db    0x4a  Code  Gb  retry.o [27]
emRetryTransmit            0x2'46f5    0x38  Code  Gb  retry.o [27]
emRetryTransmitComplete
                           0x2'472d    0x3e  Code  Gb  retry.o [27]
emRouteData             0x2000'6730     0x4  Data  Gb  ember-configuration.o [26]
emRouteRecordTable      0x2000'6734     0x4  Data  Gb  ember-configuration.o [26]
emRouteRecordTableClearChildFlags
                           0x2'2177    0x2e  Code  Gb  route-table.o [27]
emRouteRecordTableGetChildFlag
                           0x2'21d3    0x22  Code  Gb  route-table.o [27]
emRouteRecordTableSetOrClearChildFlag
                           0x2'21a5    0x2e  Code  Gb  route-table.o [27]
emRouteTableNextHop        0x2'20b3    0x50  Code  Gb  route-table.o [27]
emRouteTableSize        0x2000'6862     0x1  Data  Gb  ember-configuration.o [26]
emRouterNeighborTableSize
                        0x2000'6867     0x1  Data  Gb  ember-configuration.o [26]
emScanCommandTransmitCompleteIsr
                           0x2'5f89    0x64  Code  Gb  scan.o [27]
emScanCompleteCallback  0x2000'bf8c     0x4  Data  Gb  scan.o [27]
emScanCompleteHandler      0x1'76e1   0x21e  Code  Gb  association.o [27]
emScanEvent             0x2000'bf68     0x8  Data  Gb  scan.o [27]
emScanEventHandler         0x2'5d6d   0x118  Code  Gb  scan.o [27]
emScanTimerIsr             0x2'5e8d    0x6e  Code  Gb  scan.o [27]
emScheduleNextNetworkTimeoutEvent
                           0x2'bcb1    0x2c  Code  Gb  child-handling.o [27]
emScheduleNextPoll         0x1'7fc3     0x4  Code  Gb  ember-multi-network-stub.o [20]
emSearchDiscoveryTable     0x2'1fa1    0x4e  Code  Gb  route-table.o [27]
emSecurityCoreLibraryStatus
                           0x3'84d0     0x1  Data  Gb  trust-center-util.o [23]
emSecurityEui64            0x2'55b5    0x56  Code  Gb  zigbee-neighbor.o [27]
emSecurityHardwareInit     0x3'3a8f     0x2  Code  Gb  aes.o [27]
emSecurityIncrementOutgoingFrameCounter
                           0x3'1269    0x28  Code  Gb  crypto.o [27]
emSecurityInit             0x3'12bb    0x36  Code  Gb  crypto.o [27]
emSecurityLinkKeysLibraryStatus
                           0x3'acab     0x1  Data  Gb  aps-keys-full-stub.o [24]
emSecurityOkayToStartNetworkOperation
                           0x2'6c79    0x42  Code  Gb  aps-security.o [23]
emSecurityReadApsFrameCounterToken
                           0x2'f2f1    0x1a  Code  Gb  aps-encryption.o [23]
emSecurityReadNetworkFrameCounterToken
                           0x3'124d    0x1c  Code  Gb  crypto.o [27]
emSendApsCommand           0x2'6f8b   0x144  Code  Gb  aps-security.o [23]
emSendApsMessage           0x1'e2b5   0x26e  Code  Gb  application-support.o [27]
emSendKey                  0x2'718b    0xfa  Code  Gb  aps-security.o [23]
emSendLinkPowerDelta       0x2'6255     0x4  Code  Gb  zdo-r22-stub.o [28]
emSendMulticastsToSleepyAddress
                        0x2000'd7d1     0x1  Data  Gb  ember-configuration.o [26]
emSendNetworkKey           0x2'd03d    0x26  Code  Gb  trust-center-util.o [23]
emSendNetworkTimeoutRequest
                           0x2'baa9    0x18  Code  Gb  child-handling.o [27]
emSendNetworkTimeoutResponse
                           0x2'bb75    0x4c  Code  Gb  child-handling.o [27]
emSendOurEndDeviceAnnouncement
                           0x2'c24d    0x22  Code  Gb  zigbee-device-util.o [27]
emSendPanIdConflictReport
                           0x2'59d9    0x44  Code  Gb  management.o [27]
emSendParentAnnounceEvent
                        0x2000'c060     0x8  Data  Gb  zigbee-device-util.o [27]
emSendParentAnnounceEventHandler
                           0x2'c305    0x1e  Code  Gb  zigbee-device-util.o [27]
emSendParentAnnouncement
                           0x2'c329   0x104  Code  Gb  zigbee-device-util.o [27]
emSendRejoinResponse       0x1'6b61    0x7e  Code  Gb  association.o [27]
emSendReply                0x1'eb19    0x4a  Code  Gb  application-support.o [27]
emSendReportOrUpdate       0x2'5901    0x92  Code  Gb  management.o [27]
emSendRouteError           0x3'2f15    0x4e  Code  Gb  route-error.o [27]
emSendRouteRecord          0x3'21cd    0x8a  Code  Gb  route-discovery.o [27]
emSendRouteReply           0x3'1d57    0xde  Code  Gb  route-discovery.o [27]
emSendRouteRequest         0x3'1a91    0x14  Code  Gb  route-discovery.o [27]
emSendTimeoutRequest       0x2'ba8f    0x1a  Code  Gb  child-handling.o [27]
emSendUpdateDevice         0x2'713d    0x46  Code  Gb  aps-security.o [23]
emSendZigDevMessage        0x2'c44d   0x128  Code  Gb  zigbee-device-util.o [27]
emSendZllNetworkResponseMessage
                           0x3'2e21    0x6a  Code  Gb  zll-interpan.o [29]
emSetAllChildrenToAlternateKey
                           0x2'4bff    0x22  Code  Gb  child.o [27]
emSetAllNeighborsUsingAlternateKey
                           0x1'096f    0x2a  Code  Gb  neighbor.o [27]
emSetAllSleepyChildFlags
                           0x2'491f    0x34  Code  Gb  child.o [27]
emSetBdbTcLinkKeyExchangeAttempts
                           0x2'552d     0x6  Code  Gb  aps-keys.o [23]
emSetChildId               0x2'4d75    0x34  Code  Gb  child.o [27]
emSetCurrentNetworkInternal
                           0x1'7f19     0x2  Code  Gb  ember-multi-network-stub.o [20]
emSetCurrentRadioNetwork
                           0x1'7f55    0x2a  Code  Gb  ember-multi-network-stub.o [20]
emSetEndDeviceTimeout      0x2'ba3d    0x3c  Code  Gb  child-handling.o [27]
emSetFirstJoin             0x2'ba0d     0x8  Code  Gb  child-handling.o [27]
emSetLinkedBuffersLength
                           0x1'0d63    0x80  Code  Gb  packet-buffer.o [27]
emSetMacDataAddress        0x2'6339    0x26  Code  Gb  packet-header.o [27]
emSetNeighborEui64         0x1'0841    0x32  Code  Gb  neighbor.o [27]
emSetNeighboringDevicesUsingAlternateKey
                           0x2'56f5    0x1e  Code  Gb  zigbee-neighbor.o [27]
emSetNetworkKey            0x2'731f    0x94  Code  Gb  aps-security.o [23]
emSetNetworkManagementState
                           0x2'57c5    0x1a  Code  Gb  management.o [27]
emSetNetworkParameters     0x1'7a61    0x36  Code  Gb  association.o [27]
emSetNetworkState            0xce4f    0x68  Code  Gb  ember-stack-common.o [27]
emSetNewPowerCalculatedUsingLpd
                           0x2'6269     0x2  Code  Gb  zdo-r22-stub.o [28]
emSetNodeId                  0xcc81     0x8  Code  Gb  zigbee-stack.o [27]
emSetNodeType              0x1'79b9    0x50  Code  Gb  association.o [27]
emSetNwkUpdateId           0x2'57ab    0x1a  Code  Gb  management.o [27]
emSetPacketHeaderPayload
                           0x1'0bc7    0x40  Code  Gb  packet-buffer.o [27]
emSetPanId                   0xcc91     0x8  Code  Gb  zigbee-stack.o [27]
emSetParent                0x1'7cbd    0x36  Code  Gb  association.o [27]
emSetPhyRadioChannel       0x1'b929   0x1b8  Code  Gb  phy.o [27]
emSetPhyRadioChannel{6}{7}{9}{11}::curRadioConfig
                        0x2000'6ac8     0x4  Data  Lc  phy.o [27]
emSetPhyRadioPower         0x1'bb31     0x8  Code  Gb  phy.o [27]
emSetPhyRadioPowerFl       0x1'bb39    0x78  Code  Gb  phy.o [27]
emSetRadioParameters       0x1'7e3d    0x56  Code  Gb  ember-multi-network-stub.o [20]
emSetRouteStatusAndZeroAge
                           0x2'1ced    0x10  Code  Gb  route-table.o [27]
emSetSleepyBroadcast       0x3'1819    0x46  Code  Gb  jit.o [27]
emSetSleepyBroadcastMessageSentHandlerPending
                           0x3'185f    0x12  Code  Gb  jit.o [27]
emSetTrustCenterData       0x2'4f89    0x70  Code  Gb  aps-keys.o [23]
emSetTrustCenterEui64      0x2'511b     0x4  Code  Gb  aps-keys.o [23]
emSetUpdateTcLinkKeyState
                           0x2'5539     0x6  Code  Gb  aps-keys.o [23]
emSetZigbeeEventNetworkIndex
                           0x1'7f05     0x2  Code  Gb  ember-multi-network-stub.o [20]
emSleepyBroadcastEvent  0x2000'c144     0x8  Data  Gb  jit.o [27]
emSleepyBroadcastEventHandler
                           0x3'1871    0x30  Code  Gb  jit.o [27]
emSleepyBroadcastHeader
                        0x2000'6891     0x1  Data  Gb  jit.o [27]
emSourceRouteSubframeIndex
                           0x2'6607    0x2c  Code  Gb  zigbee-packet-header.o [27]
emSpoofDeviceAnnouncement
                           0x2'c1f5    0x4c  Code  Gb  zigbee-device-util.o [27]
emStackEnergyScanHandler
                           0x2'3007    0x10  Code  Gb  zdo-channel.o [27]
emStackTask             0x2000'd7be     0x1  Data  Gb  zigbee-stack.o [27]
emStackTokenPrimitive      0x2'c639    0x90  Code  Gb  token-cache.o [27]
emStandAloneEncryptBlock
                           0x3'3ab5     0x4  Code  Gb  aes.o [27]
emStartScan                0x2'5c2d    0x84  Code  Lc  scan.o [27]
emState                    0x2'd9a9     0x2  Code  Lc  em_emu.o [26]
emStopScan                 0x2'5cb1    0x46  Code  Gb  scan.o [27]
emStoreAndForwardDelayEvent
                        0x2000'c150     0x8  Data  Gb  store-forward.o [27]
emStoreAndForwardDelayEventHandler
                           0x3'1187     0x6  Code  Gb  store-forward.o [27]
emStoreAndForwardInit      0x3'1021    0x20  Code  Gb  store-forward.o [27]
emStoreAndForwardQueue  0x2000'6754     0x4  Data  Gb  ember-configuration.o [26]
emStoreAndForwardQueueSize
                        0x2000'6869     0x1  Data  Gb  ember-configuration.o [26]
emStoreAndForwardSubmit
                           0x3'1149    0x3e  Code  Gb  store-forward.o [27]
emStoreAndForwardTransmit
                           0x3'11e9    0x24  Code  Gb  store-forward.o [27]
emStoreAndForwardTransmitComplete
                           0x3'120d    0x30  Code  Gb  store-forward.o [27]
emStoreInt32u              0x2'64e3    0x1e  Code  Gb  byte-utilities.o [27]
emSuperRetriesForMacDataPollComplete
                           0x2'1311    0x70  Code  Gb  network.o [27]
emSupportedNetworks     0x2000'6866     0x1  Data  Gb  ember-configuration.o [26]
emSwitchNetworkKeys        0x2'729f    0x80  Code  Gb  aps-security.o [23]
emSynthFreqOffset       0x2000'6a8e     0x1  Data  Gb  phy.o [27]
emTaskCount                0x3'ac8f     0x1  Data  Gb  ember-configuration.o [26]
emTaskDetermineNextEvent
                             0xafc3    0x28  Code  Lc  event-control.o [27]
emTaskEnableIdling           0xb171     0x6  Code  Gb  event-control.o [27]
emTasks                 0x2000'bcc4    0x30  Data  Gb  ember-configuration.o [26]
emTrackNextEvent             0xaf49    0x24  Code  Lc  event-control.o [27]
emTransientLinkKeyEventControl
                        0x2000'c15c     0x8  Data  Gb  aps-keys-transient.o [23]
emTransientLinkKeyEventHandler
                           0x3'3847    0xc4  Code  Gb  aps-keys-transient.o [23]
emTransientLinkKeyEventHandler::lastEventTimeMs
                        0x2000'c168     0x4  Data  Lc  aps-keys-transient.o [23]
emTreeDepth             0x2000'd7db     0x1  Data  Gb  random-id.o [27]
emTrustCenterAddedAsNeighbor
                           0x2'77db    0x48  Code  Gb  aps-security.o [23]
emTrustCenterRequestKeyCleanup
                           0x2'd387    0x1e  Code  Gb  trust-center-util.o [23]
emUnicastTable          0x2000'c080    0x10  Data  Gb  unicast-table.o [27]
emUnrecognizedBroadcastSequence
                           0x2'8ccd    0x10  Code  Gb  random-id.o [27]
emUnusedPanIdFoundCallback
                        0x2000'bf90     0x4  Data  Gb  scan.o [27]
emUpdateAddressTable       0x1'eef9    0x32  Code  Gb  address-table.o [27]
emUpdateBindingFlags         0xdabd    0x54  Code  Gb  binding-table.o [2]
emUpdateBindingRemoteNode
                             0xda2f    0x88  Code  Gb  binding-table.o [2]
emUpdateBroadcastTable     0x2'1b97    0x3a  Code  Gb  broadcast.o [27]
emUpdateNeighborTable      0x1'06b9    0x4a  Code  Gb  neighbor.o [27]
emUpdatePerDeviceDutyCycleInternalCallback
                           0x3'32cf     0x2  Code  Gb  ember-duty-cycle-stub.o [27]
emUpdateRouteReplyForRelaying
                           0x3'1e35    0xa8  Code  Gb  route-discovery.o [27]
emUpperMacEvent         0x2000'c00c     0x8  Data  Gb  upper-mac.o [27]
emUpperMacEventHandler     0x2'3da5     0xa  Code  Gb  upper-mac.o [27]
emUpperMacInit             0x2'3acd    0x32  Code  Gb  upper-mac.o [27]
emUpperMacIsEmpty          0x2'3daf    0x2a  Code  Gb  upper-mac.o [27]
emUpperMacSubmit           0x2'3dd9    0x68  Code  Gb  upper-mac.o [27]
emUsingDefaultLinkKey      0x2'783d    0x28  Code  Gb  aps-security.o [23]
emUsingGlobalLinkKey       0x2'7823    0x1a  Code  Gb  aps-security.o [23]
emWeakestNeighborIndex     0x2'873b    0x4c  Code  Gb  neighbor-exchange.o [27]
emWhatISupportAsAParent
                        0x2000'c038     0x2  Data  Gb  child-handling.o [27]
emWriteHexInternal           0x9131    0x34  Code  Gb  ember-printf.o [26]
emWriteMessage             0x1'0efd     0xc  Code  Gb  packet-buffer.o [27]
emWriteMessageUsingVaList
                           0x1'0f09    0x14  Code  Gb  packet-buffer.o [27]
emWriteNodeData            0x1'7af5    0x28  Code  Gb  association.o [27]
emWriteRadioAndNetworkTokens
                           0x1'7a9d    0x58  Code  Gb  association.o [27]
emWriteSecurityToken       0x2'4fff    0x16  Code  Gb  aps-keys.o [23]
emZDOConfigurationModeIgnored
                           0x2'c5c5    0x38  Code  Gb  zigbee-device-util.o [27]
emZigDevPrepareZdoMessage
                           0x2'c431    0x16  Code  Gb  zigbee-device-util.o [27]
emZigbeeApplicationEvent
                        0x2000'bf54     0x8  Data  Gb  aps-retry.o [27]
emZigbeeApplicationEventHandler
                           0x2'3383     0x4  Code  Gb  aps-retry.o [27]
emZigbeeAssociationEvent
                        0x2000'adf4     0x8  Data  Gb  association.o [27]
emZigbeeAssociationEventHandler
                           0x1'717b    0x7c  Code  Gb  association.o [27]
emZigbeeBeaconEvent     0x2000'ae04     0x8  Data  Gb  association.o [27]
emZigbeeBeaconEventHandler
                           0x1'7201    0x44  Code  Gb  association.o [27]
emZigbeeChildJoinNotify
                           0x2'70cf    0x22  Code  Gb  aps-security.o [23]
emZigbeeDestinationIeeeAddress
                           0x2'67d3    0x16  Code  Gb  zigbee-packet-header.o [27]
emZigbeeDeviceBindUnbindResponse
                           0x3'4753     0x2  Code  Gb  end-device-bind-stub.o [12]
emZigbeeDeviceEvent     0x2000'c16c     0x8  Data  Gb  end-device-bind-stub.o [12]
emZigbeeDeviceEventHandler
                           0x3'4751     0x2  Code  Gb  end-device-bind-stub.o [12]
emZigbeeDeviceRequestHandler
                           0x2'bd0d   0x178  Code  Gb  zigbee-device-util.o [27]
emZigbeeDeviceResponseHandler
                           0x2'c055   0x132  Code  Gb  zigbee-device-util.o [27]
emZigbeeLeaveEvent      0x2000'aea4     0x8  Data  Gb  leave.o [27]
emZigbeeLeaveEventHandler
                             0xe48d    0x2e  Code  Gb  leave.o [27]
emZigbeeLeaveInternal        0xe4d3    0xaa  Code  Gb  leave.o [27]
emZigbeeMaxNetworkRetries
                        0x2000'6880     0x1  Data  Gb  network.o [27]
emZigbeePermitJoiningEvent
                        0x2000'adec     0x8  Data  Gb  association.o [27]
emZigbeePermitJoiningEventHandler
                           0x1'6777     0xa  Code  Gb  association.o [27]
emZigbeeProApsEncryptPacket
                           0x3'1673    0x6c  Code  Gb  crypto.o [27]
emZigbeeProDecryptPacket
                           0x3'174b    0xac  Code  Gb  crypto.o [27]
emZigbeeProLibraryStatus
                           0x3'84d4     0x1  Data  Gb  route-table.o [27]
emZigbeeProNetworkEncryptFlatPacket
                           0x3'16df    0x5c  Code  Gb  crypto.o [27]
emZigbeeProcessEnhancedBeaconRequest
                           0x2'd459     0x8  Code  Gb  enhanced-beacon-request-stub.o [28]
emZigbeeSendEnhancedBeaconRequest
                           0x2'd461     0x4  Code  Gb  enhanced-beacon-request-stub.o [28]
emZigbeeSourceIeeeAddress
                           0x2'67e9    0x1e  Code  Gb  zigbee-packet-header.o [27]
emZllApplyThresholdToAllInterpans
                        0x2000'd7d2     0x1  Data  Gb  ember-configuration.o [26]
emZllDeviceAnnounceHandler
                           0x2'1a71    0x36  Code  Gb  zll-api.o [29]
emZllGetCommonKeyIndex     0x3'31e9    0x32  Code  Gb  zll-security.o [29]
emZllGetNodeType           0x2'14cf    0x12  Code  Gb  zll-api.o [29]
emZllGetRssiCorrection     0x3'3075     0xe  Code  Gb  zll-tokens.o [29]
emZllGetSecurityAlgorithmBitmask
                           0x3'3149    0x18  Code  Gb  zll-security.o [29]
emZllGetSecurityState      0x3'3105    0x3a  Code  Gb  zll-tokens.o [29]
emZllGetState              0x3'30d9     0xe  Code  Gb  zll-tokens.o [29]
emZllGroupAddressesNeeded
                        0x2000'6876     0x1  Data  Gb  ember-configuration.o [26]
emZllInit                  0x2'1ad5     0x8  Code  Gb  zll-api.o [29]
emZllLibraryStatus         0x3'8434     0x1  Data  Gb  zll-api.o [29]
emZllMacFilterMatchList
                        0x2000'c194     0x4  Data  Gb  mac-header.o [27]
emZllNetworkKeyCrypt       0x3'321d    0x96  Code  Gb  zll-security.o [29]
emZllPanFound              0x2'1841    0x3e  Code  Gb  zll-api.o [29]
emZllPolicy             0x2000'6875     0x1  Data  Gb  ember-configuration.o [26]
emZllProcessNetworkRequest
                           0x2'187f   0x13e  Code  Gb  zll-api.o [29]
emZllProcessNetworkResponse
                           0x2'19c3    0x58  Code  Gb  zll-api.o [29]
emZllProcessNetworkUpdate
                           0x2'1a1b    0x3a  Code  Gb  zll-api.o [29]
emZllRssiThreshold      0x2000'6877     0x1  Data  Gb  ember-configuration.o [26]
emZllScanComplete          0x2'16d3   0x110  Code  Gb  zll-api.o [29]
emZllScanInProgress        0x2'14bd    0x12  Code  Gb  zll-api.o [29]
emZllSendScanRequest       0x3'2c1b    0x76  Code  Gb  zll-interpan.o [29]
emZllSendScanResponse      0x3'2c91   0x15a  Code  Gb  zll-interpan.o [29]
emZllSetNodeAndGroupIds
                           0x3'3083    0x56  Code  Gb  zll-tokens.o [29]
emZllSetRxOnWhenIdleEvent
                        0x2000'ae6c     0x8  Data  Gb  zll-api.o [29]
emZllSetRxOnWhenIdleEventHandler
                           0x2'14fd    0x24  Code  Gb  zll-api.o [29]
emZllSetState              0x3'30f5     0x8  Code  Gb  zll-tokens.o [29]
emZllStackMessages         0x3'84d8     0xc  Data  Gb  zll-interpan.o [29]
emZllStackStatusHandler
                           0x2'13f5    0x20  Code  Gb  zll-api.o [29]
emZllStopScanForEndDeviceTouchLink
                           0x2'1693    0x40  Code  Gb  zll-api.o [29]
emZllSuspendRxOnWhenIdle
                           0x2'14e1     0x8  Code  Gb  zll-api.o [29]
emZllTouchLinkEvent     0x2000'ae40     0x8  Data  Gb  zll-api.o [29]
emZllTouchLinkEventHandler
                           0x2'159b    0xf8  Code  Gb  zll-api.o [29]
emZllWaitingForInterpanResponse
                           0x2'1415    0x12  Code  Gb  zll-api.o [29]
emberAddOrUpdateKeyTableEntry
                           0x3'3493     0x4  Code  Gb  aps-keys-full-stub.o [24]
emberAddTransientLinkKey
                           0x3'349d    0x40  Code  Gb  aps-keys-transient.o [23]
emberAesHashSimple         0x3'4b73    0x2c  Code  Gb  aes-mmo.o [23]
emberAesMmoHashFinal       0x3'4c0d    0xac  Code  Gb  aes-mmo.o [23]
emberAesMmoHashInit        0x3'4ba7     0x8  Code  Gb  aes-mmo.o [23]
emberAesMmoHashUpdate      0x3'4baf    0x5e  Code  Gb  aes-mmo.o [23]
emberAfAddGroupForScene
                           0x1'd773     0x4  Code  Gb  groups-server.o [26]
emberAfAddToCurrentAppTasksCallback
                           0x2'e501    0x3a  Code  Gb  end-device-support.o [26]
emberAfAllowNetworkWriteAttributeCallback
                           0x2'8665     0x4  Code  Wk  callback-stub.o [26]
emberAfAnalogDiscreteThresholds
                           0x1'4dbc    0x14  Data  Lc  util.o [26]
emberAfApsRetryOverride
                        0x2000'd7c5     0x1  Data  Lc  util.o [26]
emberAfAttributeReadAccessCallback
                           0x1'7dbd     0x4  Code  Wk  callback-stub.o [26]
emberAfAttributeWriteAccessCallback
                           0x1'7db9     0x4  Code  Wk  callback-stub.o [26]
emberAfClearReportTableCallback
                           0x1'daf7    0x22  Code  Gb  reporting.o [26]
emberAfClearResponseData
                           0x1'd17d    0x2c  Code  Gb  message.o [26]
emberAfClusterCount        0x1'44bb    0x5a  Code  Gb  attribute-storage.o [26]
emberAfClusterDefaultResponseCallback
                           0x1'3fad    0x12  Code  Gb  attribute-storage.o [26]
emberAfClusterDefaultResponseWithMfgCodeCallback
                           0x1'3f77    0x36  Code  Gb  attribute-storage.o [26]
emberAfClusterInitCallback
                           0x2'a4b5     0x2  Code  Wk  callback-stub.o [26]
emberAfClusterMessageSentWithMfgCodeCallback
                           0x1'3fbf    0x64  Code  Gb  attribute-storage.o [26]
emberAfClusterSecurityCustomCallback
                           0x2'ab09     0x4  Code  Wk  callback-stub.o [26]
emberAfCompareValues       0x1'4c7b    0xc6  Code  Gb  util.o [26]
emberAfConfigureReportingCommandCallback
                           0x1'd7e3   0x17a  Code  Gb  reporting.o [26]
emberAfConfigureReportingResponseCallback
                           0x1'e1cd     0x4  Code  Wk  callback-stub.o [26]
emberAfContainsClient      0x1'4375    0x16  Code  Gb  attribute-storage.o [26]
emberAfContainsCluster     0x1'4349    0x16  Code  Gb  attribute-storage.o [26]
emberAfContainsClusterWithMfgCode
                           0x1'4333    0x16  Code  Gb  attribute-storage.o [26]
emberAfContainsServer      0x1'435f    0x16  Code  Gb  attribute-storage.o [26]
emberAfCopyLongString      0x1'4c35    0x46  Code  Gb  util.o [26]
emberAfCopyString          0x1'4bff    0x36  Code  Gb  util.o [26]
emberAfDaysInMonth         0x1'e1bc     0xc  Data  Gb  time-util.o [26]
emberAfDeactivateClientTick
                           0x1'cbd9     0x4  Code  Gb  af-event.o [26]
emberAfDeactivateClusterTick
                           0x1'cbc1    0x18  Code  Gb  af-event.o [26]
emberAfDeactivateServerTick
                           0x1'cbdd     0x4  Code  Gb  af-event.o [26]
emberAfDefaultResponseCallback
                           0x1'e1d5     0x4  Code  Wk  callback-stub.o [26]
emberAfDetermineIfLinkSecurityIsRequired
                           0x1'4b17    0x54  Code  Gb  util.o [26]
emberAfDiscoverAttributesResponseCallback
                           0x1'e1d9     0x4  Code  Wk  callback-stub.o [26]
emberAfEepromInitCallback
                           0x3'3bb1     0x4  Code  Gb  eeprom-afv2.o [26]
emberAfEepromNoteInitializedStateCallback
                           0x3'3bb5     0x4  Code  Gb  eeprom-afv2.o [26]
emberAfEepromShutdownCallback
                           0x3'3bb9     0x4  Code  Gb  eeprom-afv2.o [26]
emberAfEndpointConfigure
                           0x1'3f1d     0x2  Code  Gb  attribute-storage.o [26]
emberAfEndpointCount       0x1'3f1f     0x8  Code  Gb  attribute-storage.o [26]
emberAfEndpointFromIndex
                           0x1'44b1     0xa  Code  Gb  attribute-storage.o [26]
emberAfEndpointIndexIsEnabled
                           0x1'3f27    0x12  Code  Gb  attribute-storage.o [26]
emberAfEndpointIsEnabled
                           0x1'4491    0x18  Code  Gb  attribute-storage.o [26]
emberAfEnergyScanResultCallback
                           0x1'f5f1    0x1a  Code  Gb  scan-dispatch.o [26]
emberAfEventControlSetDelayMS
                           0x1'cb0b    0x1e  Code  Gb  af-event.o [26]
emberAfEventControlSetDelayQS
                           0x1'cb29     0xe  Code  Gb  af-event.o [26]
emberAfFillExternalBuffer
                           0x1'5577    0x2c  Code  Gb  client-api.o [26]
emberAfFillExternalBufferApsOptionExt
                           0x1'55a3    0x34  Code  Gb  client-api.o [26]
emberAfFillExternalManufacturerSpecificBuffer
                           0x1'5549    0x2e  Code  Gb  client-api.o [26]
emberAfFillTimeStructFromUtc
                           0x1'dfa1    0xd6  Code  Gb  time-util.o [26]
emberAfFindClusterFunction
                           0x1'4593    0x30  Code  Gb  attribute-storage.o [26]
emberAfFindClusterInTypeWithMfgCode
                           0x1'42bb    0x78  Code  Gb  attribute-storage.o [26]
emberAfFindClusterIncludingDisabledEndpointsWithMfgCode
                           0x1'43b5    0x22  Code  Gb  attribute-storage.o [26]
emberAfFindClusterServerEndpointIndex
                           0x1'43dd     0x4  Code  Gb  attribute-storage.o [26]
emberAfFindClusterServerEndpointIndexWithMfgCode
                           0x1'43d7     0x6  Code  Gb  attribute-storage.o [26]
emberAfFindClusterWithMfgCode
                           0x1'438b    0x2a  Code  Gb  attribute-storage.o [26]
emberAfFindDevicesByProfileAndCluster
                           0x2'7d85    0x5e  Code  Gb  service-discovery-common.o [26]
emberAfFindIeeeAddress     0x2'7de3    0x3e  Code  Gb  service-discovery-common.o [26]
emberAfForceEndDeviceToStayAwake
                           0x1'3969     0x6  Code  Gb  idle-sleep.o [26]
emberAfFuncArrayGroupsClusterServer
                           0x3'8418     0x4  Data  Gb  attribute-storage.o [26]
emberAfFuncArrayIdentifyClusterServer
                           0x3'8410     0x8  Data  Gb  attribute-storage.o [26]
emberAfFuncArrayOnOffClusterServer
                           0x3'8420     0x4  Data  Gb  attribute-storage.o [26]
emberAfFuncArrayOtaBootloadClusterClient
                           0x3'8428     0x8  Data  Gb  attribute-storage.o [26]
emberAfFuncArrayScenesClusterServer
                           0x3'841c     0x4  Data  Gb  attribute-storage.o [26]
emberAfFuncArrayTimeClusterServer
                           0x3'8424     0x4  Data  Gb  attribute-storage.o [26]
emberAfGetAddressIndex       0xc51d    0x68  Code  Gb  af-main-soc.o [26]
emberAfGetAttributeAnalogOrDiscreteType
                           0x1'4d41    0x1c  Code  Gb  util.o [26]
emberAfGetBindingIndex       0xc519     0x4  Code  Gb  af-main-soc.o [26]
emberAfGetChannelFrom8bitEncodedChanPg
                           0x1'4d97     0x6  Code  Gb  util.o [26]
emberAfGetCommandApsFrame
                           0x1'5643     0x6  Code  Gb  client-api.o [26]
emberAfGetCurrentSleepControlCallback
                           0x1'39bf    0x40  Code  Gb  idle-sleep.o [26]
emberAfGetCurrentTimeCallback
                           0x3'4b6f     0x4  Code  Wk  callback-stub.o [26]
emberAfGetDataSize         0x1'd77d    0x2c  Code  Gb  attribute-size.o [26]
emberAfGetDefaultSleepControlCallback
                           0x1'39ff     0x6  Code  Gb  idle-sleep.o [26]
emberAfGetDifference       0x1'4605    0x60  Code  Gb  util.o [26]
emberAfGetDisableDefaultResponse
                           0x1'49e5     0x6  Code  Gb  util.o [26]
emberAfGetEndpointByIndexCallback
                           0x1'f159     0x4  Code  Wk  callback-stub.o [26]
emberAfGetEndpointDescriptionCallback
                           0x1'f15d     0x4  Code  Wk  callback-stub.o [26]
emberAfGetEndpointInfoCallback
                             0xc11d    0x24  Code  Gb  silicon_lab_modify.o [26]
emberAfGetEui64              0xc8b3     0x8  Code  Gb  af-main-soc.o [26]
emberAfGetInt              0x1'd261    0x2e  Code  Gb  message.o [26]
emberAfGetInt16u           0x1'd293     0xc  Code  Gb  message.o [26]
emberAfGetInt32u           0x1'd28f     0x4  Code  Gb  message.o [26]
emberAfGetMfgCode          0x1'4227    0x1a  Code  Gb  attribute-storage.o [26]
emberAfGetNeighborTableSize
                             0xc8bf     0x4  Code  Gb  af-main-soc.o [26]
emberAfGetNodeId             0xc511     0x4  Code  Gb  af-main-soc.o [26]
emberAfGetNodeType           0xc8bb     0x4  Code  Gb  af-main-soc.o [26]
emberAfGetNthCluster       0x1'4515    0x5e  Code  Gb  attribute-storage.o [26]
emberAfGetPageFrom8bitEncodedChanPg
                           0x1'4d67    0x30  Code  Gb  util.o [26]
emberAfGetRetryOverride
                           0x1'49ab     0x6  Code  Gb  util.o [26]
emberAfGetSourceRouteOverheadCallback
                           0x2'ab0d     0x4  Code  Wk  callback-stub.o [26]
emberAfGetString           0x1'd29f    0x2a  Code  Gb  message.o [26]
emberAfGetUtcFromTimeStruct
                           0x1'e079    0xee  Code  Gb  time-util.o [26]
emberAfGetWeekdayFromUtc
                           0x1'e167    0x32  Code  Gb  time-util.o [26]
emberAfGroupsClusterAddGroupCallback
                           0x1'd3dd    0x3c  Code  Gb  groups-server.o [26]
emberAfGroupsClusterAddGroupIfIdentifyingCallback
                           0x1'd68d    0x30  Code  Gb  groups-server.o [26]
emberAfGroupsClusterEndpointInGroupCallback
                           0x1'd6d1     0x2  Code  Gb  groups-server.o [26]
emberAfGroupsClusterGetGroupMembershipCallback
                           0x1'd47b   0x134  Code  Gb  groups-server.o [26]
emberAfGroupsClusterRemoveAllGroupsCallback
                           0x1'd5f5    0x98  Code  Gb  groups-server.o [26]
emberAfGroupsClusterRemoveGroupCallback
                           0x1'd5af    0x46  Code  Gb  groups-server.o [26]
emberAfGroupsClusterServerCommandParse
                           0x1'4e35   0x154  Code  Gb  call-command-handler.o [26]
emberAfGroupsClusterServerInitCallback
                           0x1'd2fd    0x22  Code  Gb  groups-server.o [26]
emberAfGroupsClusterViewGroupCallback
                           0x1'd419    0x62  Code  Gb  groups-server.o [26]
emberAfIdentifyClusterIdentifyCallback
                           0x2'ab59    0x18  Code  Gb  identify.o [26]
emberAfIdentifyClusterIdentifyQueryCallback
                           0x2'ab71    0x3c  Code  Gb  identify.o [26]
emberAfIdentifyClusterServerAttributeChangedCallback
                           0x2'ab51     0x8  Code  Gb  identify.o [26]
emberAfIdentifyClusterServerCommandParse
                           0x1'4ded    0x44  Code  Gb  call-command-handler.o [26]
emberAfIdentifyClusterServerInitCallback
                           0x2'ab29     0x2  Code  Gb  identify.o [26]
emberAfIdentifyClusterServerTickCallback
                           0x2'ab2b    0x26  Code  Gb  identify.o [26]
emberAfIdentifyClusterServerTickCallbackControl1
                        0x2000'b8c4     0x8  Data  Gb  af-event.o [26]
emberAfIdentifyClusterServerTickCallbackWrapperFunction1
                           0x1'ca8d     0x8  Code  Gb  af-event.o [26]
emberAfIncomingZclSequenceNumber
                        0x2000'6859     0x1  Data  Gb  util.o [26]
emberAfIndexFromEndpoint
                           0x1'44a9     0x4  Code  Gb  attribute-storage.o [26]
emberAfIndexFromEndpointIncludingDisabledEndpoints
                           0x1'44ad     0x4  Code  Gb  attribute-storage.o [26]
emberAfInit                0x1'46d9    0x5a  Code  Gb  util.o [26]
emberAfInitializeAttributes
                           0x1'458d     0x6  Code  Gb  attribute-storage.o [26]
emberAfInterpanSendMessageCallback
                           0x2'ab05     0x4  Code  Wk  callback-stub.o [26]
emberAfInvalidImageId      0x3'8468    0x10  Data  Gb  af-main-common.o [26]
emberAfIsDeviceEnabled     0x1'45c5    0x1a  Code  Gb  util.o [26]
emberAfIsDeviceIdentifying
                           0x1'45df    0x26  Code  Gb  util.o [26]
emberAfIsLongStringAttributeType
                           0x1'3f65    0x12  Code  Gb  attribute-storage.o [26]
emberAfIsOtaImageIdValid
                           0x1'ce63    0x14  Code  Gb  ota-storage-common.o [26]
emberAfIsStringAttributeType
                           0x1'3f53    0x12  Code  Gb  attribute-storage.o [26]
emberAfIsThisDataTypeAStringType
                           0x1'3f39    0x1a  Code  Gb  attribute-storage.o [26]
emberAfIsTypeSigned        0x1'4d5d     0xa  Code  Gb  util.o [26]
emberAfLocateAttributeMetadata
                           0x1'4149    0x34  Code  Gb  attribute-storage.o [26]
emberAfLongStringLength
                           0x1'd2e3    0x18  Code  Gb  message.o [26]
emberAfMain                  0xb5f9    0x9c  Code  Gb  silicon_lab_modify.o [26]
emberAfMainInitCallback
                           0x2'e849     0xc  Code  Gb  tuya_sdk_callbacks.o [26]
emberAfMainStartCallback
                           0x1'afaf     0x4  Code  Wk  callback-stub.o [26]
emberAfMainTickCallback
                           0x2'e855     0x2  Code  Wk  callback-stub.o [26]
emberAfMaximumApsPayloadLength
                           0x1'4ba1    0x5e  Code  Gb  util.o [26]
emberAfMessageSentCallback
                           0x2'e767     0x4  Code  Wk  callback-stub.o [26]
emberAfNetworkEventControlSetDelayQS
                           0x1'b009     0x4  Code  Gb  multi-network.o [26]
emberAfNetworkEventControlSetInactive
                           0x1'b003     0x6  Code  Gb  multi-network.o [26]
emberAfNetworkFoundCallback
                           0x1'f60b    0x18  Code  Gb  scan-dispatch.o [26]
emberAfNetworkIndexFromEndpoint
                           0x1'aff1    0x12  Code  Gb  multi-network.o [26]
emberAfNetworkState          0xc515     0x4  Code  Gb  af-main-soc.o [26]
emberAfNextSequence        0x1'4997     0xe  Code  Gb  util.o [26]
emberAfOnOffClusterServerInitCallback
                           0x3'7d4d     0x4  Code  Gb  on-off.o [26]
emberAfOtaBootloadCallback
                           0x1'd171     0xa  Code  Gb  ota-bootload-soc.o [26]
emberAfOtaBootloadClusterClientDefaultResponseCallback
                             0xf471    0x1a  Code  Gb  ota-client.o [26]
emberAfOtaBootloadClusterClientInitCallback
                             0xeeb7    0x2e  Code  Gb  ota-client.o [26]
emberAfOtaBootloadClusterClientTickCallback
                             0xf037     0x2  Code  Gb  ota-client.o [26]
emberAfOtaBootloadClusterClientTickCallbackControl1
                        0x2000'b8cc     0x8  Data  Gb  af-event.o [26]
emberAfOtaBootloadClusterClientTickCallbackWrapperFunction1
                           0x1'ca95     0x8  Code  Gb  af-event.o [26]
emberAfOtaClientBootloadCallback
                             0xb6e1    0x26  Code  Gb  silicon_lab_modify.o [26]
emberAfOtaClientCustomVerifyCallback
                           0x2'85eb    0x4e  Code  Gb  ota-client-policy.o [26]
emberAfOtaClientDownloadCompleteCallback
                           0x2'8639    0x22  Code  Gb  ota-client-policy.o [26]
emberAfOtaClientIncomingMessageRawCallback
                             0xf44d    0x24  Code  Gb  ota-client.o [26]
emberAfOtaClientStartCallback
                             0xf0a1    0x16  Code  Gb  ota-client.o [26]
emberAfOtaClientVersionInfoCallback
                             0xb6b1    0x30  Code  Gb  silicon_lab_modify.o [26]
emberAfOtaStorageCheckTempDataCallback
                           0x2'7cb9    0x5a  Code  Gb  ota-storage-simple.o [26]
emberAfOtaStorageClearTempDataCallback
                           0x2'7c99     0xa  Code  Gb  ota-storage-simple.o [26]
emberAfOtaStorageDeleteImageCallback
                           0x2'7d13    0x1e  Code  Gb  ota-storage-simple.o [26]
emberAfOtaStorageDriverDownloadFinishCallback
                           0x1'd0fb    0x10  Code  Gb  ota-storage-eeprom.o [26]
emberAfOtaStorageDriverInitCallback
                           0x1'cefd    0x2e  Code  Gb  ota-storage-eeprom.o [26]
emberAfOtaStorageDriverInvalidateImageCallback
                           0x2'84e5    0x30  Code  Gb  ota-storage-eeprom-page-erase.o [26]
emberAfOtaStorageDriverMaxDownloadSizeCallback
                           0x1'd10b     0xa  Code  Gb  ota-storage-eeprom.o [26]
emberAfOtaStorageDriverPrepareToResumeDownloadCallback
                           0x2'853f    0x40  Code  Gb  ota-storage-eeprom-page-erase.o [26]
emberAfOtaStorageDriverReadCallback
                           0x1'd08d    0x12  Code  Gb  ota-storage-eeprom.o [26]
emberAfOtaStorageDriverRetrieveLastStoredOffsetCallback
                           0x2'8515    0x2a  Code  Gb  ota-storage-eeprom-page-erase.o [26]
emberAfOtaStorageDriverWriteCallback
                           0x1'd0c3    0x38  Code  Gb  ota-storage-eeprom.o [26]
emberAfOtaStorageFinishDownloadCallback
                           0x2'7c8f     0xa  Code  Gb  ota-storage-simple.o [26]
emberAfOtaStorageGetFullHeaderCallback
                           0x2'7aaf    0x36  Code  Gb  ota-storage-simple.o [26]
emberAfOtaStorageInitCallback
                           0x2'7a19    0x38  Code  Gb  ota-storage-simple.o [26]
emberAfOtaStorageReadImageDataCallback
                           0x2'7c51    0x3e  Code  Gb  ota-storage-simple.o [26]
emberAfOtaStorageSearchCallback
                           0x2'7a51    0x5e  Code  Gb  ota-storage-simple.o [26]
emberAfOtaStorageWriteTempDataCallback
                           0x2'7ca3    0x16  Code  Gb  ota-storage-simple.o [26]
emberAfPartnerLinkKeyExchangeRequestCallback
                           0x1'f14d     0x4  Code  Wk  callback-stub.o [26]
emberAfPartnerLinkKeyExchangeResponseCallback
                           0x2'e765     0x2  Code  Wk  callback-stub.o [26]
emberAfPermitJoin            0xc0fb    0x22  Code  Gb  silicon_lab_modify.o [26]
emberAfPluginCountersClear
                           0x2'a6b7     0xa  Code  Gb  counters-soc.o [26]
emberAfPluginCountersInitCallback
                           0x2'a5a9     0xc  Code  Gb  counters-soc.o [26]
emberAfPluginCountersResetThresholds
                           0x2'a6c1     0xa  Code  Gb  counters-soc.o [26]
emberAfPluginCountersRolloverCallback
                           0x3'3c39     0x2  Code  Wk  callback-stub.o [26]
emberAfPluginEepromBusy
                           0x2'aabd     0xe  Code  Gb  eeprom.o [26]
emberAfPluginEepromErase
                           0x2'aa6b    0x42  Code  Gb  eeprom.o [26]
emberAfPluginEepromFlushSavedPartialWrites
                           0x2'aa0d    0x44  Code  Gb  eeprom.o [26]
emberAfPluginEepromGetWordSize
                           0x2'a773    0x28  Code  Gb  eeprom.o [26]
emberAfPluginEepromInfo
                           0x2'a805     0xe  Code  Gb  eeprom.o [26]
emberAfPluginEepromInit
                           0x2'a7e9    0x1c  Code  Gb  eeprom.o [26]
emberAfPluginEepromInitCallback
                           0x2'a769     0x2  Code  Gb  eeprom.o [26]
emberAfPluginEepromNoteInitializedState
                           0x2'a79b     0x6  Code  Gb  eeprom.o [26]
emberAfPluginEepromRead
                           0x2'aa51    0x1a  Code  Gb  eeprom.o [26]
emberAfPluginEepromShutdown
                           0x2'aacb    0x1c  Code  Gb  eeprom.o [26]
emberAfPluginEepromWrite
                           0x2'a88d   0x180  Code  Gb  eeprom.o [26]
emberAfPluginEndDeviceSupportPollingNetworkEventHandler
                           0x1'6425    0x14  Code  Gb  polling-soc.o [26]
emberAfPluginFindAndBindInitiatorCheckTargetResponsesEventControl
                        0x2000'bbc0     0x8  Data  Gb  find-and-bind-initiator.o [26]
emberAfPluginFindAndBindTargetStart
                             0xd4f9    0x2e  Code  Gb  find-and-bind-target.o [26]
emberAfPluginFormAndJoinCleanupEventControl
                        0x2000'cfe4     0x8  Data  Gb  form-and-join-afv2.o [26]
emberAfPluginFormAndJoinCleanupEventHandler
                           0x2'fb25     0x6  Code  Gb  form-and-join-afv2.o [26]
emberAfPluginFormAndJoinNetworkFoundCallback
                           0x3'4cc1     0x2  Code  Wk  callback-stub.o [26]
emberAfPluginGreenPowerClientChannelEventControl
                        0x2000'bad4     0x8  Data  Gb  green-power-client.o [26]
emberAfPluginGreenPowerClientExitCommissioningEventControl
                        0x2000'bacc     0x8  Data  Gb  green-power-client.o [26]
emberAfPluginGroupsServerGetGroupNameCallback
                           0x2'f19f     0x2  Code  Wk  callback-stub.o [26]
emberAfPluginGroupsServerGroupNamesSupportedCallback
                           0x2'f199     0x4  Code  Wk  callback-stub.o [26]
emberAfPluginGroupsServerSetGroupNameCallback
                           0x2'f19d     0x2  Code  Wk  callback-stub.o [26]
emberAfPluginIdentifyStartFeedbackCallback
                           0x3'3c3b     0x2  Code  Wk  callback-stub.o [26]
emberAfPluginIdentifyStopFeedbackCallback
                           0x3'3c3d     0x2  Code  Wk  callback-stub.o [26]
emberAfPluginIdleSleepActiveCallback
                           0x3'3c37     0x2  Code  Wk  callback-stub.o [26]
emberAfPluginIdleSleepInitCallback
                           0x2'a5a5     0x2  Code  Gb  idle-sleep-soc.o [26]
emberAfPluginIdleSleepOkToIdleCallback
                           0x3'3c33     0x4  Code  Wk  callback-stub.o [26]
emberAfPluginIdleSleepOkToSleepCallback
                           0x3'3be5     0x4  Code  Wk  callback-stub.o [26]
emberAfPluginIdleSleepRtosCallback
                           0x3'3be9     0x4  Code  Wk  callback-stub.o [26]
emberAfPluginIdleSleepTickCallback
                           0x2'a4b9    0xdc  Code  Gb  idle-sleep-soc.o [26]
emberAfPluginIdleSleepWakeUpCallback
                           0x3'3c31     0x2  Code  Wk  callback-stub.o [26]
emberAfPluginNetworkSteeringCompleteCallback
                             0x70f3     0xa  Code  Gb  network_manager.o [26]
emberAfPluginNetworkSteeringFinishSteeringEventControl
                        0x2000'adb4     0x8  Data  Gb  network-steering.o [26]
emberAfPluginNetworkSteeringFinishSteeringEventHandler
                             0xee49    0x64  Code  Wk  network-steering.o [26]
emberAfPluginNetworkSteeringGetDistributedKeyCallback
                             0xc387    0x1e  Code  Gb  silicon_lab_modify.o [26]
emberAfPluginNetworkSteeringGetNodeTypeCallback
                           0x2'79b1    0x14  Code  Wk  callback-stub.o [26]
emberAfPluginNetworkSteeringGetPowerForRadioChannelCallback
                             0x8617    0x18  Code  Gb  zigbee_sdk_core.o [26]
emberAfPluginNetworkSteeringStackStatusCallback
                             0xeafb    0xa2  Code  Gb  network-steering.o [26]
emberAfPluginNetworkSteeringStart
                             0xedaf    0x4c  Code  Gb  network-steering.o [26]
emberAfPluginNetworkSteeringStop
                             0xedfb    0x18  Code  Gb  network-steering.o [26]
emberAfPluginOnOffClusterServerPostInitCallback
                           0x3'7d51     0x2  Code  Wk  callback-stub.o [26]
emberAfPluginOtaClientPreBootloadCallback
                           0x2'8663     0x2  Code  Wk  callback-stub.o [26]
emberAfPluginOtaClientStackStatusCallback
                             0xef49    0x40  Code  Gb  ota-client.o [26]
emberAfPluginOtaStorageSimpleEepromEraseCompleteCallback
                             0xf01f    0x18  Code  Gb  ota-client.o [26]
emberAfPluginOtaStorageSimpleEepromPageEraseEventControl
                        0x2000'bab8     0x8  Data  Gb  ota-storage-eeprom.o [26]
emberAfPluginOtaStorageSimpleEepromPageEraseEventHandler
                           0x2'83e7     0xc  Code  Gb  ota-storage-eeprom-page-erase.o [26]
emberAfPluginReportingConfigureReportedAttribute
                           0x1'dcd3   0x16c  Code  Gb  reporting.o [26]
emberAfPluginReportingConfiguredCallback
                           0x2'f1a1     0x4  Code  Wk  callback-stub.o [26]
emberAfPluginReportingGetDefaultReportingConfigCallback
                           0x3'4b59    0x16  Code  Wk  callback-stub.o [26]
emberAfPluginReportingGetReportingConfigDefaults
                           0x2'f1a5    0x70  Code  Wk  reporting-default-configuration.o [26]
emberAfPluginReportingTickEventControl
                        0x2000'bb3c     0x8  Data  Gb  reporting.o [26]
emberAfPluginScanDispatchScanEventControl
                        0x2000'bcf8     0x8  Data  Gb  scan-dispatch.o [26]
emberAfPluginScanDispatchScanEventHandler
                           0x1'f595    0x5c  Code  Gb  scan-dispatch.o [26]
emberAfPluginScanDispatchScheduleScan
                           0x1'f55f    0x36  Code  Gb  scan-dispatch.o [26]
emberAfPluginScenesServerEntriesInUse
                        0x2000'd7ba     0x1  Data  Gb  scenes.o [26]
emberAfPluginScenesServerParseAddScene
                             0xb707   0x1e0  Code  Gb  silicon_lab_modify.o [26]
emberAfPluginScenesServerParseViewScene
                             0xe2dd    0xce  Code  Gb  scenes.o [26]
emberAfPluginUpdateTcLinkKeyBeginTcLinkKeyUpdateEventControl
                        0x2000'b7fc     0x8  Data  Gb  update-tc-link-key.o [26]
emberAfPluginUpdateTcLinkKeyBeginTcLinkKeyUpdateEventHandler
                           0x1'3e5f    0x44  Code  Gb  update-tc-link-key.o [26]
emberAfPluginUpdateTcLinkKeyRetryEventControl
                        0x2000'b7f4     0x8  Data  Gb  update-tc-link-key.o [26]
emberAfPluginUpdateTcLinkKeyRetryEventHandler
                           0x1'3ea3     0xa  Code  Gb  update-tc-link-key.o [26]
emberAfPluginUpdateTcLinkKeySetDelay
                           0x1'3e37     0x8  Code  Gb  update-tc-link-key.o [26]
emberAfPluginUpdateTcLinkKeySetInactive
                           0x1'3e3f     0x8  Code  Gb  update-tc-link-key.o [26]
emberAfPluginUpdateTcLinkKeyStatusCallback
                           0x2'a409    0x94  Code  Wk  network-steering.o [26]
emberAfPluginUpdateTcLinkKeyStop
                           0x1'3e2d     0xa  Code  Gb  update-tc-link-key.o [26]
emberAfPluginUpdateTcLinkKeyZigbeeKeyEstablishmentCallback
                           0x1'3e47    0x18  Code  Gb  update-tc-link-key.o [26]
emberAfPluginZigBeeEventLoggerAddChildTimedOut
                           0x1'812b     0x2  Code  Gb  ember-configuration.o [26]
emberAfPluginZigBeeEventLoggerAddLeaveWithRejoin
                           0x1'8127     0x2  Code  Gb  ember-configuration.o [26]
emberAfPluginZigBeeEventLoggerAddLeaveWithoutRejoin
                           0x1'8125     0x2  Code  Gb  ember-configuration.o [26]
emberAfPluginZigBeeEventLoggerAddParentChange
                           0x1'8129     0x2  Code  Gb  ember-configuration.o [26]
emberAfPluginZigBeeEventLoggerAddSecureRejoin
                           0x1'8123     0x2  Code  Gb  ember-configuration.o [26]
emberAfPluginZigBeeEventLoggerAddTrustCenterRejoin
                           0x1'8121     0x2  Code  Gb  ember-configuration.o [26]
emberAfPopNetworkIndex     0x1'afe1     0x4  Code  Gb  multi-network.o [26]
emberAfPostAttributeChangeCallback
                             0x8575    0xa2  Code  Gb  zigbee_sdk_core.o [26]
emberAfPreAttributeChangeCallback
                           0x2'8669     0x4  Code  Wk  callback-stub.o [26]
emberAfPreCommandReceivedCallback
                           0x1'21af    0x4e  Code  Gb  mf_test.o [26]
emberAfPreMessageReceivedCallback
                             0xc447    0x7a  Code  Gb  silicon_lab_modify.o [26]
emberAfPreMessageSendCallback
                           0x2'e4fd     0x4  Code  Wk  callback-stub.o [26]
emberAfPreZDOMessageReceivedCallback
                           0x2'e857     0x4  Code  Wk  callback-stub.o [26]
emberAfPrint               0x3'3b25    0x14  Code  Gb  print.o [26]
emberAfPrintActiveArea  0x2000'd7ae     0x2  Data  Gb  print.o [26]
emberAfPrintBigEndianEui64
                           0x2'79c5    0x32  Code  Gb  print-formatter.o [26]
emberAfPrintEnabled        0x3'3ae9     0x4  Code  Gb  print.o [26]
emberAfProcessMessage      0x1'485f   0x138  Code  Gb  util.o [26]
emberAfProcessMessageIntoZclCmd
                           0x1'47d7    0x88  Code  Gb  util.o [26]
emberAfPushCallbackNetworkIndex
                           0x1'afcb     0x4  Code  Gb  multi-network.o [26]
emberAfPushEndpointNetworkIndex
                           0x1'afcf    0x12  Code  Gb  multi-network.o [26]
emberAfPushNetworkIndex
                           0x1'afbf     0xc  Code  Gb  multi-network.o [26]
emberAfPutBlockInResp      0x1'd233    0x2e  Code  Gb  message.o [26]
emberAfPutInt16uInResp     0x1'd1cb    0x24  Code  Gb  message.o [26]
emberAfPutInt32uInResp     0x1'd1ef    0x44  Code  Gb  message.o [26]
emberAfPutInt8uInResp      0x1'd1a9    0x22  Code  Gb  message.o [26]
emberAfReadAttribute         0xfe39    0x1c  Code  Gb  attribute-table.o [26]
emberAfReadAttributesResponseCallback
                           0x2'e85d    0x10  Code  Wk  callback-stub.o [26]
emberAfReadReportingConfigurationCommandCallback
                           0x1'd965   0x192  Code  Gb  reporting.o [26]
emberAfReadReportingConfigurationResponseCallback
                           0x1'e1d1     0x4  Code  Wk  callback-stub.o [26]
emberAfReadSequentialAttributesAddToResponse
                             0xfe71    0xfa  Code  Gb  attribute-table.o [26]
emberAfReadServerAttribute
                             0xfe55    0x1c  Code  Gb  attribute-table.o [26]
emberAfRegistrationAbortCallback
                           0x2'ab01     0x2  Code  Wk  callback-stub.o [26]
emberAfRegistrationStartCallback
                           0x2'e76b     0x4  Code  Wk  callback-stub.o [26]
emberAfRemoteDeleteBindingPermissionCallback
                           0x1'f155     0x4  Code  Wk  callback-stub.o [26]
emberAfRemoteSetBindingPermissionCallback
                           0x1'f151     0x4  Code  Wk  callback-stub.o [26]
emberAfRemoveFromCurrentAppTasksCallback
                           0x2'e53b    0x1c  Code  Gb  end-device-support.o [26]
emberAfReportAttributesCallback
                           0x2'e86d     0x4  Code  Wk  callback-stub.o [26]
emberAfReportingAttributeChangeCallback
                           0x1'db19    0xdc  Code  Gb  reporting.o [26]
emberAfResponseApsFrame
                        0x2000'b864     0xc  Data  Gb  message.o [26]
emberAfResponseDestination
                        0x2000'b860     0x2  Data  Gb  message.o [26]
emberAfResponseType     0x2000'b7ad     0x1  Data  Gb  util.o [26]
emberAfRetrieveAttributeAndCraftResponse
                             0xff6b    0xac  Code  Gb  attribute-table.o [26]
emberAfRunEvents           0x1'cab1    0x18  Code  Gb  af-event.o [26]
emberAfScanCompleteCallback
                           0x1'f623    0x40  Code  Gb  scan-dispatch.o [26]
emberAfScanErrorCallback
                           0x2'e76f     0x2  Code  Wk  callback-stub.o [26]
emberAfScenesClusterAddSceneCallback
                             0xdf01    0x1a  Code  Gb  scenes.o [26]
emberAfScenesClusterClearSceneTableCallback
                             0xe225    0xb2  Code  Gb  scenes.o [26]
emberAfScenesClusterCopySceneCallback
                           0x2'ac6d   0x1a2  Code  Gb  zll-scenes-server.o [26]
emberAfScenesClusterEnhancedAddSceneCallback
                           0x2'ac49    0x18  Code  Gb  zll-scenes-server.o [26]
emberAfScenesClusterEnhancedViewSceneCallback
                           0x2'ac61     0xc  Code  Gb  zll-scenes-server.o [26]
emberAfScenesClusterGetSceneMembershipCallback
                             0xe145    0xe0  Code  Gb  scenes.o [26]
emberAfScenesClusterRecallSavedSceneCallback
                             0xb8e7    0x74  Code  Gb  silicon_lab_modify.o [26]
emberAfScenesClusterRecallSceneCallback
                             0xe129    0x1c  Code  Gb  scenes.o [26]
emberAfScenesClusterRemoveAllScenesCallback
                             0xe013    0xd4  Code  Gb  scenes.o [26]
emberAfScenesClusterRemoveSceneCallback
                             0xdf27    0xec  Code  Gb  scenes.o [26]
emberAfScenesClusterRemoveScenesInGroupCallback
                             0xe3b1    0x8e  Code  Gb  scenes.o [26]
emberAfScenesClusterServerCommandParse
                           0x1'4f8d   0x2b0  Code  Gb  call-command-handler.o [26]
emberAfScenesClusterServerInitCallback
                             0xde71    0x1c  Code  Gb  scenes.o [26]
emberAfScenesClusterStoreCurrentSceneCallback
                             0xb95b   0x11e  Code  Gb  silicon_lab_modify.o [26]
emberAfScenesClusterStoreSceneCallback
                             0xe0e7    0x42  Code  Gb  scenes.o [26]
emberAfScenesClusterViewSceneCallback
                             0xdf1b     0xc  Code  Gb  scenes.o [26]
emberAfScenesMakeValid       0xdea7    0x5a  Code  Gb  scenes.o [26]
emberAfScenesSetSceneCountAttribute
                             0xde8d    0x1a  Code  Gb  scenes.o [26]
emberAfScheduleClientTickExtended
                           0x1'cb6b    0x14  Code  Gb  af-event.o [26]
emberAfScheduleServerTick
                           0x1'cb93     0xc  Code  Gb  af-event.o [26]
emberAfScheduleServerTickExtended
                           0x1'cb7f    0x14  Code  Gb  af-event.o [26]
emberAfScheduleTickExtended
                           0x1'cb37    0x34  Code  Gb  af-event.o [26]
emberAfSendBroadcastWithCallback
                           0x1'b309    0x24  Code  Gb  af-main-common.o [26]
emberAfSendCommandBroadcast
                           0x1'563f     0x4  Code  Gb  client-api.o [26]
emberAfSendCommandBroadcastWithCallback
                           0x1'562b    0x14  Code  Gb  client-api.o [26]
emberAfSendCommandMulticast
                           0x1'55ff     0x4  Code  Gb  client-api.o [26]
emberAfSendCommandMulticastToBindings
                           0x1'5603     0xe  Code  Gb  client-api.o [26]
emberAfSendCommandMulticastWithCallback
                           0x1'55eb    0x14  Code  Gb  client-api.o [26]
emberAfSendCommandUnicast
                           0x1'5627     0x4  Code  Gb  client-api.o [26]
emberAfSendCommandUnicastToBindings
                           0x1'55e7     0x4  Code  Gb  client-api.o [26]
emberAfSendCommandUnicastToBindingsWithCallback
                           0x1'55d7    0x10  Code  Gb  client-api.o [26]
emberAfSendCommandUnicastWithCallback
                           0x1'5611    0x16  Code  Gb  client-api.o [26]
emberAfSendDefaultResponse
                           0x1'4b13     0x4  Code  Gb  util.o [26]
emberAfSendDefaultResponseWithCallback
                           0x1'4a8f    0x84  Code  Gb  util.o [26]
emberAfSendImmediateDefaultResponse
                           0x1'4a8b     0x4  Code  Gb  util.o [26]
emberAfSendImmediateDefaultResponseWithCallback
                           0x1'4a81     0xa  Code  Gb  util.o [26]
emberAfSendMulticast       0x1'b281     0xc  Code  Gb  af-main-common.o [26]
emberAfSendMulticastToBindings
                           0x1'b28d    0x7c  Code  Gb  af-main-common.o [26]
emberAfSendMulticastWithCallback
                           0x1'b25b    0x26  Code  Gb  af-main-common.o [26]
emberAfSendResponse        0x1'4a7d     0x4  Code  Gb  util.o [26]
emberAfSendResponseWithCallback
                           0x1'4a13    0x6a  Code  Gb  util.o [26]
emberAfSendUnicastToBindingsWithCallback
                           0x1'b377    0x74  Code  Gb  af-main-common.o [26]
emberAfSendUnicastWithCallback
                           0x1'b32d    0x4a  Code  Gb  af-main-common.o [26]
emberAfSequenceNumber   0x2000'685a     0x1  Data  Gb  util.o [26]
emberAfSetCommandEndpoints
                           0x1'5649     0xc  Code  Gb  client-api.o [26]
emberAfSetDefaultSleepControlCallback
                           0x1'3a05     0x6  Code  Gb  idle-sleep.o [26]
emberAfSetDisableDefaultResponse
                           0x1'49d7     0xe  Code  Gb  util.o [26]
emberAfSetExternalBuffer
                           0x1'5539    0x10  Code  Gb  client-api.o [26]
emberAfSetRetryOverride
                           0x1'49a5     0x6  Code  Gb  util.o [26]
emberAfSetTime             0x1'e1a9    0x12  Code  Gb  time-util.o [26]
emberAfSetTimeCallback     0x2'f2e9     0x2  Code  Wk  callback-stub.o [26]
emberAfStackDown           0x1'4735    0x22  Code  Gb  util.o [26]
emberAfStackStatusCallback
                             0x70cd    0x26  Code  Gb  network_manager.o [26]
emberAfStringLength        0x1'd2d9     0xa  Code  Gb  message.o [26]
emberAfTick                0x1'4733     0x2  Code  Gb  util.o [26]
emberAfTimeClusterServerInitCallback
                           0x2'f215    0x58  Code  Gb  time-server.o [26]
emberAfTrustCenterJoinCallback
                           0x3'3ae5     0x2  Code  Wk  callback-stub.o [26]
emberAfTrustCenterKeepaliveAbortCallback
                           0x2'ab03     0x2  Code  Wk  callback-stub.o [26]
emberAfUnusedPanIdFoundCallback
                           0x1'f66d     0x2  Code  Wk  callback-stub.o [26]
emberAfVerifyAttributeWrite
                             0xfe15    0x24  Code  Gb  attribute-table.o [26]
emberAfWriteAttribute        0xfdd1    0x22  Code  Gb  attribute-table.o [26]
emberAfWriteAttributeExternal
                             0xfd71    0x60  Code  Gb  attribute-table.o [26]
emberAfWriteAttributesResponseCallback
                           0x1'e1c9     0x4  Code  Wk  callback-stub.o [26]
emberAfWriteServerAttribute
                             0xfdf3    0x22  Code  Gb  attribute-table.o [26]
emberAfZigbeeKeyEstablishmentCallback
                           0x2'e85b     0x2  Code  Wk  callback-stub.o [26]
emberAllocateLinkedBuffers
                           0x1'0a6b    0xb8  Code  Gb  packet-buffer.o [27]
emberAppLinkKeyRequestPolicy
                        0x2000'686e     0x1  Data  Gb  ember-configuration.o [26]
emberAppendSourceRouteHandler
                           0x1'80ff     0x4  Code  Gb  ember-configuration.o [26]
emberAppendToLinkedBuffers
                           0x1'0d5f     0x4  Code  Gb  packet-buffer.o [27]
emberApsAckTimeoutMs    0x2000'683c     0x2  Data  Gb  ember-configuration.o [26]
emberBindingIsActive       0x2'3a69     0x4  Code  Gb  aps-retry.o [27]
emberBindingTableSize   0x2000'686a     0x1  Data  Gb  ember-configuration.o [26]
emberBootloadTransmitCompleteHandler
                           0x1'80ef     0x2  Code  Gb  ember-configuration.o [26]
emberCalibrateCurrentChannel
                           0x1'b87f    0x58  Code  Gb  phy.o [27]
emberChangeSourceRouteHandler
                           0x1'80fb     0x2  Code  Gb  ember-configuration.o [26]
emberChildId               0x2'4c39    0x1c  Code  Gb  child.o [27]
emberChildIndex            0x2'7915    0x48  Code  Gb  child-table.o [27]
emberChildJoinHandler      0x1'80eb     0x2  Code  Gb  ember-configuration.o [26]
emberChildPower            0x2'd471     0x2  Code  Gb  enhanced-beacon-request-stub.o [28]
emberChildTableSize     0x2000'6861     0x1  Data  Gb  ember-configuration.o [26]
emberClearBindingTable       0xde19    0x34  Code  Gb  binding-table.o [2]
emberClearTransientLinkKeys
                           0x3'34dd    0x42  Code  Gb  aps-keys-transient.o [23]
emberCopyBufferBytes       0x1'1045    0x64  Code  Gb  packet-buffer.o [27]
emberCopyLinkedBuffers     0x1'0e87    0x40  Code  Gb  packet-buffer.o [27]
emberCounterHandler        0x2'a5b5   0x102  Code  Gb  counters-soc.o [26]
emberCounterRequiresDestinationNodeId
                             0xce19    0x1e  Code  Gb  ember-stack-common.o [27]
emberCounterRequiresPhyIndex
                             0xcdf9    0x1e  Code  Gb  ember-stack-common.o [27]
emberCounters           0x2000'ce64    0x54  Data  Gb  counters-soc.o [26]
emberCountersThresholds
                        0x2000'ceb8    0x54  Data  Gb  counters-soc.o [26]
emberCurrentStackTasks       0xcb17    0x7a  Code  Gb  zigbee-stack.o [27]
emberDebugAssert           0x1'fa7d     0x2  Code  Gb  debug-stub.o [9]
emberDeleteBinding           0xdbcf    0x5a  Code  Gb  binding-table.o [2]
emberEmbernetPassthroughSourceAddress
                        0x2000'684c     0x2  Data  Gb  mac-header.o [27]
emberEndDevicePollTimeout
                        0x2000'6873     0x1  Data  Gb  ember-configuration.o [26]
emberEndpointCount      0x2000'd7b9     0x1  Data  Gb  attribute-storage.o [26]
emberEnergyScanResultHandler
                             0xc93b    0x26  Code  Gb  af-main-soc.o [26]
emberFetchLowHighInt16u
                           0x2'64cd     0x6  Code  Gb  byte-utilities.o [27]
emberFillLinkedBuffers     0x1'0c45    0x36  Code  Gb  packet-buffer.o [27]
emberFillStackBuffer       0x1'0c07    0x3e  Code  Gb  packet-buffer.o [27]
emberFindAndRejoinNetwork
                           0x1'6a83     0x4  Code  Gb  association.o [27]
emberFindAndRejoinNetworkWithReason
                           0x1'6a89    0xa6  Code  Gb  association.o [27]
emberFindKeyTableEntry     0x3'348f     0x4  Code  Gb  aps-keys-full-stub.o [24]
emberFormAndJoinCleanup
                           0x1'f4c5    0x1c  Code  Gb  form-and-join.o [26]
emberFormAndJoinEnergyScanResultHandler
                           0x1'f409    0x1e  Code  Gb  form-and-join.o [26]
emberFormAndJoinIsScanning
                           0x1'f4b5    0x10  Code  Gb  form-and-join.o [26]
emberFormAndJoinNetworkFoundHandler
                           0x1'f39f    0x6a  Code  Gb  form-and-join.o [26]
emberFormAndJoinScanCompleteHandler
                           0x1'f35d    0x42  Code  Gb  form-and-join.o [26]
emberFormAndJoinUnusedPanIdFoundHandler
                           0x1'f427    0x24  Code  Gb  form-and-join.o [26]
emberFragmentWindowSize
                        0x2000'686d     0x1  Data  Gb  ember-configuration.o [26]
emberGenerateRandomKey       0xcf79     0x6  Code  Gb  ember-stack-common.o [27]
emberGetAddressTableRemoteEui64
                           0x1'ee27    0x32  Code  Gb  address-table.o [27]
emberGetAddressTableRemoteNodeId
                           0x1'ee59    0x1c  Code  Gb  address-table.o [27]
emberGetBinding              0xdb1d    0x18  Code  Gb  binding-table.o [2]
emberGetBindingIndex       0x1'eb63    0x10  Code  Gb  application-support.o [27]
emberGetBindingRemoteNodeId
                             0xdb11     0xc  Code  Gb  binding-table.o [2]
emberGetCallbackNetwork
                           0x1'7efb     0x4  Code  Gb  ember-multi-network-stub.o [20]
emberGetChildData          0x2'4c55    0x68  Code  Gb  child.o [27]
emberGetCurrentNetwork     0x1'7ef7     0x4  Code  Gb  ember-multi-network-stub.o [20]
emberGetCurrentSecurityState
                           0x2'6c37    0x42  Code  Gb  aps-security.o [23]
emberGetEndpoint             0xc641    0x44  Code  Gb  af-main-soc.o [26]
emberGetEndpointCluster
                             0xc6e9    0x62  Code  Gb  af-main-soc.o [26]
emberGetEndpointDescription
                             0xc685    0x64  Code  Gb  af-main-soc.o [26]
emberGetExtendedPanId      0x1'7c9b    0x16  Code  Gb  association.o [27]
emberGetExtendedSecurityBitmask
                           0x2'6c21    0x16  Code  Gb  aps-security.o [23]
emberGetExtendedTimeout
                           0x1'f07f    0x3a  Code  Gb  address-table.o [27]
emberGetKey                0x2'4ebd    0xcc  Code  Gb  aps-keys.o [23]
emberGetLastAppZigDevRequestSequence
                           0x3'3b95     0xa  Code  Gb  zigbee-device-common.o [26]
emberGetLastHopLqi         0x1'edbd     0x4  Code  Gb  zigbee-dispatch.o [27]
emberGetLastHopRssi        0x1'edc1     0x2  Code  Gb  zigbee-dispatch.o [27]
emberGetLastStackZigDevRequestSequence
                           0x2'c575     0xa  Code  Gb  zigbee-device-util.o [27]
emberGetLibraryStatus      0x1'f679    0x40  Code  Gb  ember-library.o [27]
emberGetLinkedBuffersByte
                           0x1'0e71     0xa  Code  Gb  packet-buffer.o [27]
emberGetLinkedBuffersLowHighInt16u
                           0x1'0fdf    0x10  Code  Gb  packet-buffer.o [27]
emberGetLinkedBuffersLowHighInt32u
                           0x1'1015    0x26  Code  Gb  packet-buffer.o [27]
emberGetLinkedBuffersPointer
                           0x1'0e1f    0x32  Code  Gb  packet-buffer.o [27]
emberGetMfgSecurityConfig
                           0x3'3419    0x40  Code  Gb  security-config-mfg-3xx.o [23]
emberGetNeighbor           0x1'08ff    0x56  Code  Gb  neighbor.o [27]
emberGetNetworkParameters
                             0xcf15    0x46  Code  Gb  ember-stack-common.o [27]
emberGetNodeId               0xcc79     0x8  Code  Gb  zigbee-stack.o [27]
emberGetNodeType           0x1'7c6d    0x2e  Code  Gb  association.o [27]
emberGetPanId                0xcc89     0x8  Code  Gb  zigbee-stack.o [27]
emberGetParentEui64          0xce3f     0x8  Code  Gb  ember-stack-common.o [27]
emberGetParentNodeId         0xce37     0x8  Code  Gb  ember-stack-common.o [27]
emberGetRadioChannel         0xcfb5     0x8  Code  Gb  ember-stack-common.o [27]
emberGetRadioPower           0xcfab     0xa  Code  Gb  ember-stack-common.o [27]
emberGetRejoinMode         0x2'7865     0x6  Code  Gb  aps-security.o [23]
emberGetRoutingShortcutThreshold
                           0x1'0955     0x6  Code  Gb  neighbor.o [27]
emberGetSender             0x1'edcb    0x10  Code  Gb  zigbee-dispatch.o [27]
emberGetSenderEui64        0x1'eddb    0x1e  Code  Gb  zigbee-dispatch.o [27]
emberGetTrueRandomNumberArray
                           0x2'5a5d    0x10  Code  Gb  ember-random-api.o [27]
emberHaveLinkKey           0x2'5289    0x14  Code  Gb  aps-keys.o [23]
emberHmacAesHash           0x3'397d    0x62  Code  Gb  hmac.o [23]
emberIdConflictHandler     0x1'810f     0x2  Code  Gb  ember-configuration.o [26]
emberIeeeAddressRequest
                           0x2'c1e9     0xc  Code  Gb  zigbee-device-util.o [27]
emberIncomingBootloadMessageHandler
                           0x1'80ed     0x2  Code  Gb  ember-configuration.o [26]
emberIncomingManyToOneRouteRequestHandler
                           0x1'8103     0x2  Code  Gb  ember-configuration.o [26]
emberIncomingMessageHandler
                             0xc78b    0x48  Code  Gb  af-main-soc.o [26]
emberIncomingRouteErrorHandler
                           0x1'8105     0x2  Code  Gb  ember-configuration.o [26]
emberIncomingRouteRecordHandler
                           0x1'80fd     0x2  Code  Gb  ember-configuration.o [26]
emberInit                    0xc98d    0xa8  Code  Gb  zigbee-stack.o [27]
emberIsResetRejoiningNeighborsFCEnabled
                           0x1'095b     0x6  Code  Gb  neighbor.o [27]
emberJoinNetwork           0x1'6781    0x52  Code  Gb  association.o [27]
emberJoinableNetworkFoundHandler
                           0x2'fb21     0x4  Code  Gb  form-and-join-afv2.o [26]
emberLeaveNetwork            0xe4bb    0x18  Code  Gb  leave.o [27]
emberLinkPowerDeltaInterval
                        0x2000'6842     0x2  Data  Gb  ember-configuration.o [26]
emberLookupEui64ByNodeId
                             0xcc0d    0x6c  Code  Gb  zigbee-stack.o [27]
emberLookupNodeIdByEui64
                             0xcbd7    0x36  Code  Gb  zigbee-stack.o [27]
emberMacCounters        0x2000'cf30    0x84  Data  Gb  counters-soc.o [26]
emberMacFilterMatchMessageHandler
                           0x1'80f1     0x4  Code  Gb  ember-configuration.o [26]
emberMacIndirectTimeout
                        0x2000'6840     0x2  Data  Gb  ember-configuration.o [26]
emberMacPassthroughFilterHandler
                           0x1'8111     0x4  Code  Gb  ember-configuration.o [26]
emberMacPassthroughFlags
                        0x2000'd7e6     0x1  Data  Gb  mac-header.o [27]
emberMacPassthroughMessageHandler
                           0x1'80f5     0x2  Code  Gb  ember-configuration.o [26]
emberMarkTaskIdle            0xb0e1    0x82  Code  Gb  event-control.o [27]
emberMatchDescriptorsRequest
                           0x2'e561   0x166  Code  Gb  zigbee-device-library.o [26]
emberMaximumApsPayloadLength
                           0x1'eb0b     0xe  Code  Gb  application-support.o [27]
emberMessageBufferContents
                           0x1'0a55     0xc  Code  Gb  packet-buffer.o [27]
emberMessageSentHandler
                             0xc7d3    0x3a  Code  Gb  af-main-soc.o [26]
emberMsToNextEvent           0xb037     0x4  Code  Gb  event-control.o [27]
emberMsToNextEventExtended
                             0xafeb    0x4c  Code  Gb  event-control.o [27]
emberMsToNextStackEvent
                             0xced9    0x3c  Code  Gb  ember-stack-common.o [27]
emberMultiNetworkCounters
                        0x2000'cf0c    0x24  Data  Gb  counters-soc.o [26]
emberMultiPhyStop          0x2'626d     0x4  Code  Gb  ember-multi-phy-stub.o [27]
emberMulticastTable     0x2000'673c     0x4  Data  Gb  ember-configuration.o [26]
emberMulticastTableSize
                        0x2000'6864     0x1  Data  Gb  ember-configuration.o [26]
emberNetworkFoundHandler
                             0xc8d9    0x3c  Code  Gb  af-main-soc.o [26]
emberNetworkInit           0x1'697b   0x108  Code  Gb  association.o [27]
emberNetworkState            0xceb7     0xc  Code  Gb  ember-stack-common.o [27]
emberNextZigDevRequestSequence
                           0x3'3b9f     0xe  Code  Gb  zigbee-device-common.o [26]
emberOrphanNotificationHandler
                           0x1'8107     0x2  Code  Gb  ember-configuration.o [26]
emberPacketHandoffIncoming
                           0x2'd451     0x4  Code  Gb  packet-handoff.o [26]
emberPacketHandoffOutgoing
                           0x2'd455     0x4  Code  Gb  packet-handoff.o [26]
emberPanIdConflictHandler
                           0x1'8109     0x4  Code  Gb  ember-configuration.o [26]
emberPermitJoining         0x1'673d    0x3a  Code  Gb  association.o [27]
emberPluginNetworkSteeringDistributedKey
                        0x2000'add8    0x10  Data  Gb  network-steering.o [26]
emberPollCompleteHandler
                             0x99f3     0x2  Code  Gb  zigbee_sdk_end_device_handle.o [26]
emberPollForData           0x2'0a7f    0x54  Code  Gb  network.o [27]
emberPollHandler           0x1'80f9     0x2  Code  Gb  ember-configuration.o [26]
emberProxyBroadcast        0x1'e623    0x62  Code  Gb  application-support.o [27]
emberProxyNextBroadcastFromLong
                           0x1'e685    0x18  Code  Gb  application-support.o [27]
emberRadioNeedsCalibratingHandler
                           0x1'a8d5     0x4  Code  Gb  ember-base-configuration.o [26]
emberRawTransmitCompleteHandler
                           0x1'80f7     0x2  Code  Gb  ember-configuration.o [26]
emberRemoteDeleteBindingHandler
                             0xc605    0x3c  Code  Gb  af-main-soc.o [26]
emberRemoteSetBindingHandler
                             0xc585    0x80  Code  Gb  af-main-soc.o [26]
emberRequestLinkKey        0x2'52b3    0xda  Code  Gb  aps-keys.o [23]
emberRestartFlag        0x2000'6ce0     0x1  Data  Lc  network_manager.o [26]
emberRtosIdleHandler       0x1'811b     0x4  Code  Gb  ember-configuration.o [26]
emberRtosStackWakeupIsrHandler
                           0x1'811f     0x2  Code  Gb  ember-configuration.o [26]
emberRunEvents               0xb03b    0x2e  Code  Gb  event-control.o [27]
emberRunTask                 0xb06f    0x28  Code  Gb  event-control.o [27]
emberScanCompleteHandler
                             0xc915    0x26  Code  Gb  af-main-soc.o [26]
emberScanErrorHandler      0x1'b675    0x16  Code  Gb  af-main-common.o [26]
emberScanForNextJoinableNetwork
                           0x1'f2d3    0x88  Code  Gb  form-and-join.o [26]
emberSecurityLevel           0xce47     0x8  Code  Gb  ember-stack-common.o [27]
emberSendBroadcast         0x1'e5e3    0x40  Code  Gb  application-support.o [27]
emberSendManyToOneRouteRequest
                           0x1'fe8f    0x3c  Code  Gb  network.o [27]
emberSendMulticast         0x1'e709    0x4e  Code  Gb  application-support.o [27]
emberSendMulticastWithAlias
                           0x1'e69d    0x6c  Code  Gb  application-support.o [27]
emberSendParentAnnouncement
                           0x2'c2a3    0x62  Code  Gb  zigbee-device-util.o [27]
emberSendRemoveDevice      0x2'ceff    0x6e  Code  Gb  trust-center-util.o [23]
emberSendUnicast           0x1'e523    0xc0  Code  Gb  application-support.o [27]
emberSendZigDevRequest     0x2'e6c7    0x42  Code  Gb  zigbee-device-library.o [26]
emberSerialBufferTick      0x1'ca69     0x2  Code  Gb  serial.o [26]
emberSerialGuaranteedPrintf
                           0x1'ca49    0x18  Code  Gb  serial.o [26]
emberSerialPrintf            0x93fd    0x10  Code  Gb  ember-printf.o [26]
emberSerialPrintfVarArg
                             0x940d     0xa  Code  Gb  ember-printf.o [26]
emberSetBinding              0xdb35    0x6a  Code  Gb  binding-table.o [2]
emberSetExtendedSecurityBitmask
                           0x2'6bed    0x34  Code  Gb  aps-security.o [23]
emberSetExtendedTimeout
                           0x1'f0b9    0x28  Code  Gb  address-table.o [27]
emberSetInitialSecurityState
                           0x2'6afd    0xf0  Code  Gb  aps-security.o [23]
emberSetLinkedBuffersByte
                           0x1'0e7b     0xc  Code  Gb  packet-buffer.o [27]
emberSetLinkedBuffersLength
                           0x1'0de9    0x22  Code  Gb  packet-buffer.o [27]
emberSetLinkedBuffersLowHighInt16u
                           0x1'0ff7    0x1e  Code  Gb  packet-buffer.o [27]
emberSetLogicalAndRadioChannel
                           0x2'1abf    0x16  Code  Gb  zll-api.o [29]
emberSetMessageBufferLength
                           0x1'0a61     0xa  Code  Gb  packet-buffer.o [27]
emberSetRadioChannel       0x1'7c1d    0x48  Code  Gb  association.o [27]
emberSetRadioPower           0xcf97    0x14  Code  Gb  ember-stack-common.o [27]
emberSetTxPowerMode        0x1'b7af    0x24  Code  Gb  phy.o [27]
emberStackIsPerformingRejoin
                           0x1'657f    0x1a  Code  Gb  association.o [27]
emberStackIsUp               0xcec3    0x16  Code  Gb  ember-stack-common.o [27]
emberStackPowerDown          0xcb91    0x2a  Code  Gb  zigbee-stack.o [27]
emberStackPowerUp            0xcbbb    0x1c  Code  Gb  zigbee-stack.o [27]
emberStackProfile            0xcc99     0x8  Code  Gb  zigbee-stack.o [27]
emberStackStatusHandler
                             0xc74b    0x16  Code  Gb  af-main-soc.o [26]
emberStackTokenChangedHandler
                           0x1'810d     0x2  Code  Gb  ember-configuration.o [26]
emberStartActiveScan       0x2'5b3b    0x10  Code  Gb  scan.o [27]
emberStartEnergyScan       0x2'5b29    0x12  Code  Gb  scan.o [27]
emberStartScan             0x2'5b4f    0xdc  Code  Gb  scan.o [27]
emberStartWritingStackTokens
                           0x2'c733    0x24  Code  Gb  token-cache.o [27]
emberStoreLowHighInt16u
                           0x2'64db     0x8  Code  Gb  byte-utilities.o [27]
emberSwitchNetworkKeyHandler
                           0x1'80e9     0x2  Code  Gb  ember-configuration.o [26]
emberTaskInit                0xb099    0x46  Code  Gb  event-control.o [27]
emberTcRejoinsUsingWellKnownKeyAllowed
                           0x1'7d4f     0x6  Code  Gb  association.o [27]
emberTick                    0xca35    0xe2  Code  Gb  zigbee-stack.o [27]
emberTransientKeyTimeoutS
                        0x2000'683e     0x2  Data  Gb  ember-configuration.o [26]
emberTrustCenterJoinHandler
                           0x2'78c3    0x4e  Code  Gb  af-trust-center.o [26]
emberTrustCenterLinkKeyRequestPolicy
                        0x2000'd7ce     0x1  Data  Gb  ember-configuration.o [26]
emberUnusedPanIdFoundHandler
                             0xc961    0x26  Code  Gb  af-main-soc.o [26]
emberUpdateTcLinkKey       0x2'543d    0x50  Code  Gb  aps-keys.o [23]
emberUpdateTcLinkKey::allZeroEui64
                           0x2'5564     0x8  Data  Lc  aps-keys.o [23]
emberZigbeeKeyEstablishmentHandler
                             0xc987     0x4  Code  Gb  af-main-soc.o [26]
emberZigbeeRemoveChild       0xe75d    0x3e  Code  Gb  leave.o [27]
emberZllClearTokens        0x2'1a55    0x1c  Code  Gb  zll-api.o [29]
emberZllNetworkFoundHandler
                           0x1'8115     0x2  Code  Gb  ember-configuration.o [26]
emberZllOperationInProgress
                           0x2'13e9     0xc  Code  Gb  zll-api.o [29]
emberZllRxOnWhenIdleGetActive
                           0x2'14e9    0x14  Code  Gb  zll-api.o [29]
emberZllScanCompleteHandler
                           0x1'8117     0x2  Code  Gb  ember-configuration.o [26]
emberZllTouchLinkTargetHandler
                           0x1'8119     0x2  Code  Gb  ember-configuration.o [26]
encryptNonce               0x3'12f1    0x24  Code  Lc  crypto.o [27]
endEraseOffset          0x2000'bf34     0x4  Data  Lc  ota-storage-eeprom-page-erase.o [26]
end_device_add_poll          0x943f    0x44  Code  Gb  zigbee_sdk_end_device_handle.o [26]
end_device_data_poll_flag
                        0x2000'aeb2     0x1  Data  Lc  zigbee_sdk_end_device_handle.o [26]
end_device_handle            0x9485   0x128  Code  Gb  zigbee_sdk_end_device_handle.o [26]
end_device_ready_to_rejoin
                             0x97d5    0x60  Code  Lc  zigbee_sdk_end_device_handle.o [26]
end_device_stack_status_callback
                             0x9947    0x5a  Code  Gb  zigbee_sdk_end_device_handle.o [26]
end_devie_mgr_evt_handle
                             0x95e1    0xac  Code  Lc  zigbee_sdk_end_device_handle.o [26]
energyScanComplete         0x1'f1af    0x92  Code  Lc  form-and-join.o [26]
energyScanMaxRssiDetected
                        0x2000'bf65     0x1  Data  Lc  scan.o [27]
energyScanResultsBuffer
                        0x2000'687d     0x1  Data  Lc  scan.o [27]
entryGetGroup              0x2'de79     0xc  Code  Lc  nvm3_cache.o [16]
entryScore                 0x2'8721    0x1a  Code  Lc  neighbor-exchange.o [27]
entrySetGroup              0x2'de97    0x14  Code  Lc  nvm3_cache.o [16]
entrySetKey                0x2'de85    0x12  Code  Lc  nvm3_cache.o [16]
entrySetPtr                0x2'deab     0xa  Code  Lc  nvm3_cache.o [16]
eraseAllPages              0x1'99e1    0x6e  Code  Lc  nvm3.o [16]
eraseFirstPageCallback     0x1'998f    0x4e  Code  Lc  nvm3.o [16]
eraseOperation             0x2'82c3    0x86  Code  Lc  ota-storage-eeprom-page-erase.o [26]
erasePage                  0x1'9965    0x2a  Code  Lc  nvm3.o [16]
errors                  0x2000'ad85     0x1  Data  Lc  ota-client.o [26]
euiLookup                    0xf1e7    0x42  Code  Lc  ota-client.o [26]
euiLookupErrorOccurred       0xf1dd     0xa  Code  Lc  ota-client.o [26]
eventStartTime          0x2000'bfcc     0x4  Data  Lc  retry.o [27]
eventStoreAndForwardStartTime
                        0x2000'c158     0x4  Data  Lc  store-forward.o [27]
executeCallback            0x2'7ed1    0x26  Code  Lc  service-discovery-common.o [26]
executeTimerCallbacks      0x1'86bb    0x26  Code  Lc  rtcdriver.o [26]
exit                       0x3'7ef5     0x4  Code  Gb  exit.o [11]
ext_plugin_app_cmd_handle
                             0xc18d    0x34  Code  Gb  silicon_lab_modify.o [26]
ext_plugin_cmd_handle        0xc1fd    0xea  Code  Gb  silicon_lab_modify.o [26]
ext_plugin_find              0xc2e7    0x12  Code  Gb  silicon_lab_modify.o [26]
ext_plugin_init              0xc35d    0x1c  Code  Gb  silicon_lab_modify.o [26]
ext_plugin_stack_status_handle
                             0xc379     0xe  Code  Gb  silicon_lab_modify.o [26]
extendedPanIdCache      0x2000'bf0c     0x8  Data  Lc  form-and-join.o [26]
fifoReadObj                0x1'921b    0xc0  Code  Lc  nvm3.o [16]
fifoScan                   0x1'9853    0x6a  Code  Lc  nvm3.o [16]
fifoUpdateCounter          0x1'9e51    0xf8  Code  Lc  nvm3.o [16]
fifoWriteObj               0x1'9061   0x120  Code  Lc  nvm3.o [16]
fifoWriteWrapper           0x1'9185    0x96  Code  Lc  nvm3.o [16]
findBroadcastTableEntry
                           0x2'1b29    0x5a  Code  Lc  broadcast.o [27]
findChildIndex             0x2'4981    0x64  Code  Lc  child.o [27]
findClusterEndpointIndex
                           0x1'43e1    0x58  Code  Lc  attribute-storage.o [26]
findCurrentEraseCnt        0x1'98ff    0x50  Code  Lc  nvm3.o [16]
findDatagramDestination
                           0x2'35f1   0x108  Code  Lc  aps-retry.o [27]
findEventContext           0x1'cac9    0x42  Code  Lc  af-event.o [26]
findFirstPage              0x1'9701    0x88  Code  Lc  nvm3.o [16]
findGroupIndex             0x1'd737    0x3c  Code  Lc  groups-server.o [26]
findIndexFromEndpoint      0x1'4439    0x58  Code  Lc  attribute-storage.o [26]
findLongAddressEntry       0x1'ee75    0x4a  Code  Lc  address-table.o [27]
findNeighborIndex          0x1'0271    0x36  Code  Lc  neighbor.o [27]
findNextObj                0x1'97df    0x6e  Code  Lc  nvm3.o [16]
findNumberOfUnusedPages
                           0x1'978f    0x50  Code  Lc  nvm3.o [16]
findObj                    0x1'952d   0x164  Code  Lc  nvm3.o [16]
findOrRemoveTransientLinkKey
                           0x3'35c9    0xa6  Code  Lc  aps-keys-transient.o [23]
findRouteTableEntry        0x2'1f2b    0x2c  Code  Lc  route-table.o [27]
findStateForEventControl
                           0x2'820b    0x38  Code  Lc  service-discovery-common.o [26]
findStateForResponse       0x2'81d1    0x3a  Code  Lc  service-discovery-common.o [26]
findTransientLinkKey       0x3'3679     0xc  Code  Lc  aps-keys-transient.o [23]
findUnusedState            0x2'819d    0x34  Code  Lc  service-discovery-common.o [26]
findValidPageCnt           0x1'96cb    0x36  Code  Lc  nvm3.o [16]
find_and_bind_init_evt_handle
                             0xc317     0xe  Code  Gb  silicon_lab_modify.o [26]
finishNetworkShutdown        0xe5b1    0x84  Code  Lc  leave.o [27]
finishPendingAckedMessage
                           0x2'378d   0x194  Code  Lc  aps-retry.o [27]
finishSetChannel           0x1'7bc1    0x4a  Code  Lc  association.o [27]
firmware_config            0x1'394d    0x1c  Code  Gb  config.o [1]
firstTimeInitStates        0x2'8161    0x3c  Code  Lc  service-discovery-common.o [26]
fixedEepromInfo         0x2000'd188    0x18  Data  Gb  bootloader-interface-app.o [26]
flash_addr_raw_read        0x1'57b1    0x94  Code  Gb  user_flash.o [26]
flash_addr_raw_write       0x1'5717    0x9a  Code  Gb  user_flash.o [26]
flash_data_is_ok           0x1'569d    0x40  Code  Gb  user_flash.o [26]
flash_data_set             0x1'56dd    0x3a  Code  Gb  user_flash.o [26]
flash_data_write_ext       0x1'3a9b    0x46  Code  Gb  ecc_use.o [26]
flash_items             0x2000'72a4    0x64  Data  Gb  zigbee_sdk_core.o [26]
formAndJoinGetNetworkPointer
                           0x2'facd     0xe  Code  Gb  form-and-join-node-adapter.o [26]
formAndJoinReleaseBuffer
                           0x2'fafd    0x1a  Code  Gb  form-and-join-node-adapter.o [26]
formAndJoinScanType     0x2000'bf00     0x1  Data  Lc  form-and-join.o [26]
formAndJoinSetBufferLength
                           0x2'fae5    0x18  Code  Gb  form-and-join-node-adapter.o [26]
formAndJoinSetCleanupTimeout
                           0x2'fadb     0xa  Code  Gb  form-and-join-node-adapter.o [26]
formAndJoinStackProfile
                           0x2'fac9     0x4  Code  Gb  form-and-join-node-adapter.o [26]
forwardTunneledCommand     0x2'6ee1    0xaa  Code  Lc  aps-security.o [23]
found_ty_gw_time        0x2000'6cec     0x4  Data  Lc  network_manager.o [26]
fragmentDelay           0x2000'bf51     0x1  Data  Lc  aps-retry.o [27]
framePendingSetInOutgoingAck
                        0x2000'6a92     0x1  Data  Lc  phy.o [27]
free                       0x1'3947     0x4  Code  Gb  heaptramp0.o [11]
free_zcl_send_data           0x7ce7     0xa  Code  Lc  zigbee_sdk_core.o [26]
freelist                0x2000'6853     0x1  Data  Lc  packet-buffer.o [27]
freq                    0x2000'c1b0     0x4  Data  Lc  ustimer.o [26]
gAllowRejoinsWithWellKnownKey
                        0x2000'ae14     0x1  Data  Lc  association.o [27]
gBeaconJitterDuration   0x2000'62e1     0x1  Data  Gb  association.o [27]
gConfiguredKey          0x2000'adc8    0x10  Data  Lc  network-steering.o [26]
gExtendedPanIdToFilterOn
                        0x2000'adc0     0x8  Data  Lc  network-steering.o [26]
gFilterByExtendedPanId  0x2000'adab     0x1  Data  Lc  network-steering.o [26]
gOtaEepromSize          0x2000'656c     0x4  Data  Lc  ota-storage-eeprom.o [26]
gOtaImageInfoStart      0x2000'6574     0x4  Data  Lc  ota-storage-eeprom.o [26]
gOtaSlotToUse           0x2000'657c     0x4  Data  Lc  ota-storage-eeprom.o [26]
gOtaStorageEnd          0x2000'6578     0x4  Data  Lc  ota-storage-eeprom.o [26]
gOtaStorageStart        0x2000'6570     0x4  Data  Lc  ota-storage-eeprom.o [26]
gProxySourceNodeId      0x2000'c068     0x2  Data  Lc  zigbee-device-util.o [27]
gProxyTheBroadcast      0x2000'c05d     0x1  Data  Lc  zigbee-device-util.o [27]
gScanDuration           0x2000'62e2     0x1  Data  Gb  association.o [27]
gSeq                    0x2000'6887     0x1  Data  Lc  zigbee-device-util.o [27]
gUseConfiguredKey       0x2000'adac     0x1  Data  Lc  network-steering.o [26]
g_app_rx_buf            0x2000'83a0   0x800  Data  Lc  hal_uart_api.o [26]
g_attr16_token_buff     0x2000'8bb0    0x20  Data  Lc  create_zigbee_dev.o [26]
g_attr32_token_buff     0x2000'8bd0    0x40  Data  Lc  create_zigbee_dev.o [26]
g_attr48_token_buff     0x2000'8c10    0x30  Data  Lc  create_zigbee_dev.o [26]
g_attr8_token_buff      0x2000'8ba0    0x10  Data  Lc  create_zigbee_dev.o [26]
g_bare_content          0x2000'b730    0x40  Data  Lc  ecc_use.o [26]
g_bare_content_len      0x2000'b72c     0x1  Data  Lc  ecc_use.o [26]
g_base_attr_list           0x3'82c8    0xb4  Data  Gb  create_zigbee_dev.o [26]
g_basic_cluster_id           0xaedc     0xc  Data  Gb  create_zigbee_dev.o [26]
g_battery_config        0x2000'7308    0x48  Data  Lc  hal_battery.o [26]
g_clear_bind_table_func
                        0x2000'ad54     0x4  Data  Lc  silicon_lab_modify.o [26]
g_cluster_func_struct   0x2000'6060     0x8  Data  Lc  silicon_lab_modify.o [26]
g_default_battery_table
                           0x3'829c    0x2c  Data  Gb  hal_battery.o [26]
g_dev_base_info         0x2000'7270     0x4  Data  Gb  zigbee_sdk_core.o [26]
g_dev_config            0x2000'7274     0x4  Data  Gb  zigbee_sdk_core.o [26]
g_dev_key               0x2000'6d04     0x4  Data  Lc  dev_gpio.o [26]
g_dev_led               0x2000'6d08     0x4  Data  Lc  dev_gpio.o [26]
g_distribute_test_key        0xc4fc    0x10  Data  Lc  silicon_lab_modify.o [26]
g_enable_flash_op       0x2000'6896     0x1  Data  Lc  bootloader-interface-app.o [26]
g_end_dev_int_config    0x2000'682c     0x2  Data  Gb  zigbee_sdk_end_device_handle.o [26]
g_ep_alias_list         0x2000'8c50     0x4  Data  Lc  create_zigbee_dev.o [26]
g_ext_plugin_cmd_callback_struct
                        0x2000'ad20     0x4  Data  Lc  silicon_lab_modify.o [26]
g_ext_plugin_cmd_callback_struct_sums
                        0x2000'ad1c     0x2  Data  Lc  silicon_lab_modify.o [26]
g_ext_plugin_cmd_handle
                        0x2000'6068    0x18  Data  Lc  silicon_lab_modify.o [26]
g_ext_plugin_enable_map
                        0x2000'ad50     0x4  Data  Lc  silicon_lab_modify.o [26]
g_find_bind_init_evt_func
                        0x2000'ad40     0x4  Data  Lc  silicon_lab_modify.o [26]
g_firmware_name         0x2000'6018     0x4  Data  Gb  config.o [1]
g_firmware_ver          0x2000'684f     0x1  Data  Gb  config.o [1]
g_flash_swap            0x2000'af2c   0x800  Data  Lc  ecc_use.o [26]
g_gpio_button_config    0x2000'6cfc     0x4  Data  Lc  dev_gpio.o [26]
g_gpio_input_evt        0x2000'6cf3     0x1  Data  Lc  dev_gpio.o [26]
g_gpio_input_sum        0x2000'6cf0     0x1  Data  Lc  dev_gpio.o [26]
g_gpio_int_func         0x2000'6d0c    0xc0  Data  Lc  dev_gpio.o [26]
g_gpio_key_func         0x2000'6cf8     0x4  Data  Lc  dev_gpio.o [26]
g_gpio_output_config    0x2000'6d00     0x4  Data  Lc  dev_gpio.o [26]
g_gpio_output_evt       0x2000'6cf2     0x1  Data  Lc  dev_gpio.o [26]
g_gpio_output_sum       0x2000'6cf1     0x1  Data  Lc  dev_gpio.o [26]
g_gpio_use_poll         0x2000'6cf4     0x1  Data  Lc  dev_gpio.o [26]
g_green_power_client_channel_evt_func
                        0x2000'ad44     0x4  Data  Lc  silicon_lab_modify.o [26]
g_green_power_client_cmd_func
                        0x2000'ad34     0x4  Data  Lc  silicon_lab_modify.o [26]
g_green_power_client_exit_commisson_evt_func
                        0x2000'ad48     0x4  Data  Lc  silicon_lab_modify.o [26]
g_green_power_client_init_func
                        0x2000'ad24     0x4  Data  Lc  silicon_lab_modify.o [26]
g_green_power_retrieve_attribute_func
                        0x2000'ad4c     0x4  Data  Lc  silicon_lab_modify.o [26]
g_identify_client_cmd_func
                        0x2000'ad30     0x4  Data  Lc  silicon_lab_modify.o [26]
g_identify_server_cmd_func
                        0x2000'ad38     0x4  Data  Lc  silicon_lab_modify.o [26]
g_join_manager_info     0x2000'6cc4    0x1c  Data  Gb  network_manager.o [26]
g_key_lock_flg          0x2000'684e     0x1  Data  Gb  app_common.o [1]
g_load_bind_default_func
                        0x2000'ad58     0x4  Data  Lc  silicon_lab_modify.o [26]
g_malloc_static_buffer  0x2000'8c58  0x1800  Data  Lc  create_zigbee_dev.o [26]
g_malloc_static_used    0x2000'8c54     0x2  Data  Lc  create_zigbee_dev.o [26]
g_mf_protocol           0x2000'a85c     0x8  Data  Lc  mf_test.o [26]
g_mf_test_data          0x2000'a868    0xa8  Data  Lc  mf_test.o [26]
g_mf_uart_data          0x2000'a658   0x200  Data  Lc  mf_test.o [26]
g_mf_uart_data_len      0x2000'a858     0x2  Data  Lc  mf_test.o [26]
g_mf_uart_st            0x2000'd7b7     0x1  Data  Lc  mf_test.o [26]
g_ota_attr_list            0x3'837c    0x30  Data  Gb  create_zigbee_dev.o [26]
g_ota_auto_start_enable
                        0x2000'd7b8     0x1  Data  Lc  silicon_lab_modify.o [26]
g_ota_cluster_id             0xaee8     0xc  Data  Gb  create_zigbee_dev.o [26]
g_ota_poll_bak          0x2000'aec8     0x8  Data  Lc  zigbee_sdk_end_device_handle.o [26]
g_poll_cfg              0x2000'aec0     0x4  Data  Lc  zigbee_sdk_end_device_handle.o [26]
g_poll_forever          0x2000'aeb4     0x1  Data  Lc  zigbee_sdk_end_device_handle.o [26]
g_poll_total_times      0x2000'aebc     0x4  Data  Lc  zigbee_sdk_end_device_handle.o [26]
g_rejoin_cfg            0x2000'aec4     0x4  Data  Lc  zigbee_sdk_end_device_handle.o [26]
g_rejoin_times          0x2000'aeb0     0x1  Data  Lc  zigbee_sdk_end_device_handle.o [26]
g_report_init_func      0x2000'ad28     0x4  Data  Lc  silicon_lab_modify.o [26]
g_report_stack_status_func
                        0x2000'ad2c     0x4  Data  Lc  silicon_lab_modify.o [26]
g_report_tick_evt_func  0x2000'ad3c     0x4  Data  Lc  silicon_lab_modify.o [26]
g_sdk_cb_list           0x2000'6020    0x3c  Data  Lc  zigbee_sdk_core.o [26]
g_sdk_patch_data        0x2000'b7cc    0x24  Data  Gb  tuya_sdk_callbacks.o [26]
g_sdk_timer_list        0x2000'aee4     0x4  Data  Lc  dev_common_utils.o [26]
g_sdk_timer_next_time   0x2000'aee8     0x4  Data  Lc  dev_common_utils.o [26]
g_sdk_timer_sums        0x2000'aee0     0x1  Data  Lc  dev_common_utils.o [26]
g_single_id_store       0x2000'a458   0x200  Data  Lc  create_zigbee_dev.o [26]
g_soft_func             0x2000'723c     0x4  Data  Lc  dev_evt_pool.o [26]
g_source_profile_id     0x2000'c028     0x2  Data  Lc  silicon_lab_modify.o [26]
g_source_profile_id_bak
                        0x2000'c02a     0x2  Data  Lc  silicon_lab_modify.o [26]
g_states                0x2000'bb44    0x40  Data  Lc  service-discovery-common.o [26]
g_ticks                 0x2000'6fcc     0x4  Data  Lc  dev_evt_pool.o [26]
g_ticks_ms              0x2000'6fd0     0x4  Data  Lc  dev_evt_pool.o [26]
g_ticks_second          0x2000'6fd4     0x4  Data  Lc  dev_evt_pool.o [26]
g_time_attr_list           0x3'83ac     0xc  Data  Gb  create_zigbee_dev.o [26]
g_time_cluster_id            0xaef4     0xc  Data  Gb  create_zigbee_dev.o [26]
g_time_update_interval  0x2000'681e     0x2  Data  Lc  time_sync.o [26]
g_timer1_int_func       0x2000'7248     0x4  Data  Lc  dev_evt_pool.o [26]
g_timer_func            0x2000'7240     0x4  Data  Lc  dev_evt_pool.o [26]
g_timer_func_list       0x2000'7170    0xcc  Data  Lc  dev_evt_pool.o [26]
g_timer_list            0x2000'6dcc   0x200  Data  Lc  dev_evt_pool.o [26]
g_timer_server_start_flag
                        0x2000'ad10     0x1  Data  Lc  time_sync.o [26]
g_total_attr_size       0x2000'8c42     0x2  Data  Gb  create_zigbee_dev.o [26]
g_total_singlone_attr_size
                        0x2000'8c40     0x2  Data  Gb  create_zigbee_dev.o [26]
g_total_singlone_token_attr_size
                        0x2000'8c46     0x2  Data  Gb  create_zigbee_dev.o [26]
g_total_token_attr_size
                        0x2000'8c44     0x2  Data  Gb  create_zigbee_dev.o [26]
g_try_all_key           0x2000'ada8     0x2  Data  Gb  network-steering.o [26]
g_zcl_send_queue        0x2000'7278     0x4  Data  Gb  zigbee_sdk_core.o [26]
g_zcl_send_vip_queue    0x2000'727c     0x4  Data  Gb  zigbee_sdk_core.o [26]
g_zg_inner_flag         0x2000'724c    0x24  Data  Gb  zigbee_sdk_core.o [26]
g_zg_scan_policy        0x2000'aeb1     0x1  Data  Lc  zigbee_sdk_end_device_handle.o [26]
g_zg_sdk_info           0x2000'7280     0x8  Data  Gb  zigbee_sdk_core.o [26]
g_zll_app_handle_flag   0x2000'ad5c     0x1  Data  Gb  silicon_lab_modify.o [26]
g_zll_client_endpoint   0x2000'6852     0x1  Data  Gb  silicon_lab_modify.o [26]
g_zll_client_mac        0x2000'ad60     0x8  Data  Gb  silicon_lab_modify.o [26]
gb_prescale             0x2000'7244     0x1  Data  Lc  dev_evt_pool.o [26]
generatedAttributes     0x2000'6080   0x198  Data  Gb  attribute-storage.o [26]
generatedClusters       0x2000'6218    0xa0  Data  Gb  attribute-storage.o [26]
generatedDefaults          0x3'83ec    0x24  Data  Gb  attribute-storage.o [26]
generatedReportingConfigDefaults
                           0x3'84a8    0x14  Data  Gb  reporting-default-configuration.o [26]
getBeaconPayload           0x1'6501    0x62  Code  Gb  association.o [27]
getByteMaskIndexFromEeprom
                           0x2'83f3    0x60  Code  Lc  ota-storage-eeprom-page-erase.o [26]
getByteMaskIndexFromOtaOffset
                           0x2'846b    0x2a  Code  Lc  ota-storage-eeprom-page-erase.o [26]
getCurrentOffset             0xf04d    0x2c  Code  Lc  ota-client.o [26]
getFirstObjAdrInNextGoodPage
                           0x1'8c93    0x4e  Code  Lc  nvm3.o [16]
getFreeSize                0x1'8ce1    0x4e  Code  Lc  nvm3.o [16]
getIdentifyState           0x2'ab11    0x18  Code  Lc  identify.o [26]
getLittleEndianInt16uFromBlock
                           0x2'7d39     0xe  Code  Lc  ota-storage-simple.o [26]
getLittleEndianInt32uFromBlock
                           0x2'7d47    0x18  Code  Lc  ota-storage-simple.o [26]
getManufacturerCode        0x1'4201    0x26  Code  Lc  attribute-storage.o [26]
getMessageSentCallback     0x1'b05d    0x2c  Code  Lc  af-main-common.o [26]
getMessageSentCallbackIndex
                           0x1'b00d    0x24  Code  Lc  af-main-common.o [26]
getMfgTokenData            0x1'a5fd    0xdc  Code  Lc  mfg-token.o [26]
getMultiNetworkCounterIndex
                           0x2'a6cd    0x22  Code  Lc  counters-soc.o [26]
getMultiNetworkTokenAddress
                           0x2'c615    0x22  Code  Lc  token-cache.o [27]
getMyZigbeeInformation     0x3'25f9    0x22  Code  Lc  zll-interpan.o [29]
getNextCandidate             0xe8e5    0x20  Code  Lc  network-steering.o [26]
getNextCandidate_new         0xe923   0x108  Code  Lc  network-steering.o [26]
getNextChannel               0xec91    0x4a  Code  Lc  network-steering.o [26]
getNextObj                 0x1'8d77    0x30  Code  Lc  nvm3.o [16]
getNonvolatileBinding        0xd991    0x2a  Code  Lc  binding-table.o [2]
getObjContent              0x1'9691    0x3a  Code  Lc  nvm3.o [16]
getOffsetFromByteMaskIndex
                           0x2'8453    0x18  Code  Lc  ota-storage-eeprom-page-erase.o [26]
getPartnerLinkKey            0xf04b     0x2  Code  Lc  ota-client.o [26]
getPreviousGoodPage        0x1'8c53    0x36  Code  Lc  nvm3.o [16]
getRandom32BitValue        0x3'25d1    0x12  Code  Lc  zll-interpan.o [29]
getServerMask              0x3'3cf1    0x2c  Code  Gb  zigbee-device.o [27]
getTrustCenterToken        0x2'50ad     0xc  Code  Lc  aps-keys.o [23]
getUpgradeActivationPolicy
                             0xfd29     0x4  Code  Lc  ota-client.o [26]
getUpgradeTimeoutPolicy
                             0xfd2d     0x4  Code  Lc  ota-client.o [26]
get_current_time             0xd8a9     0x6  Code  Gb  time_sync.o [26]
get_current_time_struct
                             0xd8af    0x3e  Code  Gb  time_sync.o [26]
get_dev_firmware_ver         0xd111    0x28  Code  Gb  dev_common_utils.o [26]
get_dev_firmware_ver::ver_str
                        0x2000'aed8     0x8  Data  Lc  dev_common_utils.o [26]
get_gw_time_callback         0xd8ed    0x1a  Code  Gb  time_sync.o [26]
get_ias_zone_enroll_state
                             0x5d4b    0x24  Code  Gb  ias_zone_cluster.o [1]
get_ias_zone_id              0x5a2b    0x1e  Code  Gb  ias_zone_cluster.o [1]
get_queue                  0x1'38cb    0x14  Code  Gb  dev_queue.o [26]
get_queue_len              0x1'38df     0x4  Code  Gb  dev_queue.o [26]
get_queue_total_data         0x4cbb    0x32  Code  Lc  hal_uart_api.o [26]
get_reset_reason           0x1'3a1d     0x4  Code  Gb  hal_common_tools.o [26]
get_send_interval            0x7cf1    0x30  Code  Lc  zigbee_sdk_core.o [26]
get_send_interval::first_send
                        0x2000'6851     0x1  Data  Lc  zigbee_sdk_core.o [26]
gotoNextChannel              0xea2b    0x46  Code  Gb  network-steering.o [26]
gpioCallbacks           0x2000'aeec    0x40  Data  Lc  gpiointerrupt.o [26]
gpio_button_init             0x5213    0x8c  Code  Gb  dev_gpio.o [26]
gpio_button_int_handle       0x5049     0xc  Code  Lc  dev_gpio.o [26]
gpio_button_recovery         0x51d3    0x40  Code  Lc  dev_gpio.o [26]
gpio_clear_all_special_func
                             0x53d1    0x1c  Code  Gb  dev_gpio.o [26]
gpio_get_int_handler         0x50bf    0x34  Code  Lc  dev_gpio.o [26]
gpio_get_int_num             0x5055    0x6a  Code  Lc  dev_gpio.o [26]
gpio_int_callback            0x532d    0x3c  Code  Lc  dev_gpio.o [26]
gpio_int_register            0x512b    0x4e  Code  Gb  dev_gpio.o [26]
gpio_int_register_for_button
                             0x5179    0x5a  Code  Lc  dev_gpio.o [26]
gpio_int_unregister          0x50f3    0x38  Code  Gb  dev_gpio.o [26]
gpio_key_config            0x3'8018     0x8  Data  Gb  app_common.o [1]
gpio_mode_stransfer          0x5301    0x28  Code  Lc  dev_gpio.o [26]
gpio_output_config         0x3'8020    0x10  Data  Gb  app_common.o [1]
gpio_output_init             0x529f    0x54  Code  Gb  dev_gpio.o [26]
gpio_raw_input_read_status
                             0x5549     0xa  Code  Gb  dev_gpio.o [26]
gpio_recovery                0x52f3     0xc  Code  Gb  dev_gpio.o [26]
gpio_sensor_alarm1_interrupt_handler
                             0x586f    0x5e  Code  Gb  ias_zone_cluster.o [1]
gpio_sensor_config         0x3'8030     0x8  Data  Gb  app_common.o [1]
gpio_sensor_debounce_handler
                             0x458d    0xbc  Code  Gb  app_common.o [1]
gpio_sensor_tamper_interrupt_handler
                             0x58cd    0x5e  Code  Gb  ias_zone_cluster.o [1]
gpio_tamper_config         0x3'8038     0x8  Data  Gb  app_common.o [1]
gpio_wakeup_flag        0x2000'd7b6     0x1  Data  Lc  hal_uart_api.o [26]
green_power_client_channel_evt_handle
                             0xc341     0xe  Code  Gb  silicon_lab_modify.o [26]
green_power_client_exit_commisson_evt_handle
                             0xc34f     0xe  Code  Gb  silicon_lab_modify.o [26]
guardRegionPlaceHolder  0x2000'3a80    0x20  Data  Gb  cstartup-common.o [26]
halAppAddressTable           0x4000    0xac  Data  Gb  cstartup-common.o [26]
halAppBootloaderEraseRawStorage
                           0x2'f121    0x36  Code  Gb  bootloader-interface-app.o [26]
halAppBootloaderImageIsValid
                           0x2'f029    0x44  Code  Gb  bootloader-interface-app.o [26]
halAppBootloaderImageIsValidReset
                           0x2'efe5    0x44  Code  Gb  bootloader-interface-app.o [26]
halAppBootloaderInfo       0x2'ef61    0x70  Code  Gb  bootloader-interface-app.o [26]
halAppBootloaderInit       0x2'ef3d    0x24  Code  Gb  bootloader-interface-app.o [26]
halAppBootloaderInstallNewImage
                           0x2'f06d    0x2e  Code  Gb  bootloader-interface-app.o [26]
halAppBootloaderReadRawStorage
                           0x2'f0ef    0x32  Code  Gb  bootloader-interface-app.o [26]
halAppBootloaderShutdown
                           0x2'efd1    0x14  Code  Gb  bootloader-interface-app.o [26]
halAppBootloaderStorageBusy
                           0x2'f157    0x26  Code  Gb  bootloader-interface-app.o [26]
halAppBootloaderWriteRawStorage
                           0x2'f0b5    0x3a  Code  Gb  bootloader-interface-app.o [26]
halBootloaderAddressTable
                                0x0    0x54  Data  Gb  cstartup-common.o [26]
halCommonDelayMicroseconds
                           0x2'44a7     0x4  Code  Gb  micro-common-internal.o [14]
halCommonGetInt16uMillisecondTick
                             0xb199     0xa  Code  Gb  system-timer.o [14]
halCommonGetInt16uQuarterSecondTick
                             0xb1a3    0x10  Code  Gb  system-timer.o [14]
halCommonGetInt32uMillisecondTick
                             0xb1b3     0xe  Code  Gb  system-timer.o [14]
halCommonGetRandom         0x2'5ae1    0x1e  Code  Gb  random.o [26]
halCommonIdleForMilliseconds
                             0xb1eb    0x14  Code  Gb  system-timer.o [14]
halCommonMemCompare        0x1'cc91    0x26  Code  Gb  mem-util.o [26]
halCommonMemMove           0x1'cbf1    0x8e  Code  Gb  mem-util.o [26]
halCommonMemSet            0x1'cc7f    0x12  Code  Gb  mem-util.o [26]
halConfigClockInit         0x2'e209    0x86  Code  Lc  hal-config.o [26]
halConfigInit              0x2'e295    0x12  Code  Gb  hal-config.o [26]
halConfigPowerDownGpio     0x2'e4ed     0x2  Code  Gb  hal-config-gpio.o [26]
halConfigPowerUpGpio       0x2'e4ef     0x2  Code  Gb  hal-config-gpio.o [26]
halGetAntennaMode          0x2'ed4b     0x4  Code  Gb  antenna-stub.o [26]
halGetAntennaSelected      0x2'ed47     0x4  Code  Gb  antenna-stub.o [26]
halGetResetInfo            0x2'94ff     0x8  Code  Gb  cstartup-common.o [26]
halInit                    0x1'a9bb   0x5ae  Code  Gb  micro.o [26]
halInternalAssertFailed
                           0x1'8089    0x2e  Code  Gb  assert-crash-handlers.o [26]
halInternalAssertFault     0x1'8085     0x4  Code  Lc  assert-crash-handlers.o [26]
halInternalClassifyReset
                           0x2'9465    0x9a  Code  Gb  cstartup-common.o [26]
halInternalClassifyReset::resetEventTable
                           0x2'9510    0x20  Data  Lc  cstartup-common.o [26]
halInternalDisableWatchDog
                           0x1'3df3     0xe  Code  Gb  micro-common.o [26]
halInternalEm4Wakeup       0x1'8a05    0x18  Code  Gb  sleep-efm32.o [26]
halInternalEnableWatchDog
                           0x1'3d9d    0x50  Code  Gb  micro-common.o [26]
halInternalFlashWrite      0x2'e181    0x68  Code  Gb  flash.o [14]
halInternalGetCtuneToken
                           0x2'44c7    0x2c  Code  Gb  micro-common-internal.o [14]
halInternalGetMfgTokenData
                           0x1'a6d9    0x4a  Code  Gb  mfg-token.o [26]
halInternalGetModuleCtuneXiXo
                           0x2'44ab    0x1c  Code  Gb  micro-common-internal.o [14]
halInternalGetTokenData
                             0xb3e9    0x74  Code  Gb  token.o [26]
halInternalIncrementCounterToken
                             0xb4d1    0x34  Code  Gb  token.o [26]
halInternalPa2p4GHzInit
                        0x2000'6704     0x4  Data  Gb  micro.o [26]
halInternalPaSubGHzInit
                        0x2000'bcc0     0x4  Data  Gb  micro.o [26]
halInternalResetWatchDog
                           0x1'3ded     0x6  Code  Gb  micro-common.o [26]
halInternalSetMfgTokenData
                           0x1'a725   0x190  Code  Gb  mfg-token.o [26]
halInternalSetTokenData
                             0xb45d    0x74  Code  Gb  token.o [26]
halInternalSleep           0x1'8b5b     0x4  Code  Gb  sleep-efm32.o [26]
halInternalSleepHelper     0x1'8a41   0x11a  Code  Lc  sleep-efm32.o [26]
halInternalStartSystemTimer
                             0xb1c1    0x22  Code  Gb  system-timer.o [14]
halInternalSysReset        0x3'4b15    0x38  Code  Gb  micro-internal.o [14]
halInternalWatchDogEnabled
                           0x1'3e01     0x4  Code  Gb  micro-common.o [26]
halInternalWatchDogSleep
                           0x1'3e05     0xa  Code  Gb  micro-common.o [26]
halNvm3Callback            0x1'a8d9     0x2  Code  Gb  ember-base-configuration.o [26]
halPowerDown               0x1'af69     0x4  Code  Gb  micro.o [26]
halPowerUp                 0x1'af6d     0x4  Code  Gb  micro.o [26]
halPtaIsEnabled            0x2'e4f1     0x4  Code  Gb  coexistence-802154.o [26]
halPtaStackEvent           0x2'e4f5     0x4  Code  Gb  coexistence-802154.o [26]
halResetInfo            0x2000'0000    0x9c  Data  Gb  cstartup-common.o [26]
halSimEeToNvm3Upgrade      0x1'8b91     0x4  Code  Gb  sim-eeprom2-to-nvm3-upgrade-stub.o [25]
halSleep                   0x1'8b5f     0x2  Code  Gb  sleep-efm32.o [26]
halSleepForMilliseconds
                             0xb251     0x8  Code  Gb  system-timer.o [14]
halStackCancelSymbolDelay
                           0x3'3371    0x4a  Code  Gb  symbol-timer.o [27]
halStackGetInt32uSymbolTick
                           0x3'32d1     0x4  Code  Gb  symbol-timer.o [27]
halStackIndicateActivity
                           0x3'2257     0x2  Code  Gb  led.o [26]
halStackInitTokens           0xb269   0x180  Code  Gb  token.o [26]
halStackOrderSymbolDelay
                           0x3'32f5    0x7c  Code  Gb  symbol-timer.o [27]
halStackProcessBootCount
                           0x1'af79     0x6  Code  Gb  micro.o [26]
halStackRadioHoldOffPowerDown
                           0x2'e4f9     0x2  Code  Gb  coexistence-802154.o [26]
halStackRadioHoldOffPowerUp
                           0x2'e4fb     0x2  Code  Gb  coexistence-802154.o [26]
halStackRadioPowerDownBoard
                           0x1'af71     0x4  Code  Gb  micro.o [26]
halStackRadioPowerUpBoard
                           0x1'af75     0x4  Code  Gb  micro.o [26]
halStackSeedRandom         0x2'5ab1    0x1e  Code  Gb  random.o [26]
halStackSymbolDelayAIsr
                           0x2'2487     0x2  Code  Gb  lower-mac-efr32.o [27]
halStackSymbolDelayIsr     0x3'32d5    0x1c  Code  Lc  symbol-timer.o [27]
halTick                    0x2'44a5     0x2  Code  Gb  micro-common-internal.o [14]
halToggleAntenna           0x2'ed4f     0x4  Code  Gb  antenna-stub.o [26]
hal_adc_get_valid_data       0x8b81    0x24  Code  Lc  hal_battery.o [26]
hal_adc_get_value          0x1'5a51    0x4a  Code  Gb  hal_adc.o [26]
hal_adc_init               0x1'5969    0xe8  Code  Gb  hal_adc.o [26]
hal_adc_to_voltage         0x1'5a9d    0x38  Code  Gb  hal_adc.o [26]
hal_battery_capture          0x8ba5    0x5c  Code  Lc  hal_battery.o [26]
hal_battery_config           0x8c21    0x9a  Code  Gb  hal_battery.o [26]
hal_battery_evt_handle       0x8c01     0x8  Code  Lc  hal_battery.o [26]
hal_battery_get_real         0x8cf7    0x16  Code  Gb  hal_battery.o [26]
hal_battery_get_report       0x8d0d     0x2  Code  Gb  hal_battery.o [26]
hal_battery_info_install
                             0x8aff    0x82  Code  Lc  hal_battery.o [26]
hal_battery_inner_handle
                             0x8c09    0x18  Code  Gb  hal_battery.o [26]
hal_battery_percentage_to_voltage
                             0x89e3    0x88  Code  Lc  hal_battery.o [26]
hal_battery_report_policy_config
                             0x8d0f    0x26  Code  Gb  hal_battery.o [26]
hal_battery_start            0x8cbb    0x30  Code  Gb  hal_battery.o [26]
hal_battery_stop             0x8ceb     0xc  Code  Gb  hal_battery.o [26]
hal_battery_voltage_to_percentage
                             0x8961    0x82  Code  Lc  hal_battery.o [26]
hal_rx_Isr                   0x4dad    0x2e  Code  Gb  hal_uart_api.o [26]
handleApplicationKeyRequest
                           0x2'd199   0x10a  Code  Lc  trust-center-util.o [23]
handleNonAddressConflictRouteError
                           0x3'3019    0x50  Code  Gb  route-error.o [27]
handleOverflow             0x1'8763    0x1a  Code  Lc  rtcdriver.o [26]
handlerQueue            0x2000'bd00   0x200  Data  Lc  scan-dispatch.o [26]
handlerQueueNextIndex      0x1'f4f9    0x16  Code  Lc  scan-dispatch.o [26]
hardwareVersion         0x2000'ad9c     0x2  Data  Lc  ota-client.o [26]
hardware_gpio_init           0x5511    0x38  Code  Gb  dev_gpio.o [26]
hardware_gpio_mem_init       0x5369    0x24  Code  Gb  dev_gpio.o [26]
hasCapacity                0x1'6563    0x1c  Code  Lc  association.o [27]
haveTrustCenterLinkKey     0x2'5075    0x1c  Code  Lc  aps-keys.o [23]
hdrIsLarge                 0x2'dcbd    0x12  Code  Lc  nvm3_object.o [16]
head                    0x2000'bcf4     0x1  Data  Lc  scan-dispatch.o [26]
heartbeat               0x2000'6ce4     0x8  Data  Lc  network_manager.o [26]
hex_to_hexstr                0xd01f    0x6a  Code  Gb  dev_common_utils.o [26]
hexstr_to_hex                0xd089    0x88  Code  Gb  dev_common_utils.o [26]
highCallback            0x2000'd3fc     0x4  Data  Lc  tempdrv.o [26]
iadcClkGet                 0x1'61cb    0x52  Code  Lc  em_cmu.o [26]
iadc_allconfig          0x2000'b804    0x18  Data  Gb  hal_adc.o [26]
iadc_init_st            0x2000'b820     0xc  Data  Gb  hal_adc.o [26]
iadc_single_init_st     0x2000'b82c     0x8  Data  Gb  hal_adc.o [26]
iadc_single_input_st    0x2000'b81c     0x4  Data  Gb  hal_adc.o [26]
ias_sensor_init              0x44ff    0x8e  Code  Gb  app_common.o [1]
ias_sensor_status_sync       0x5c3f    0x72  Code  Gb  ias_zone_cluster.o [1]
ias_zone_attr_list         0x3'80b0    0x48  Data  Gb  device_register.o [1]
ias_zone_cluster_handler
                             0x5cd1    0x5c  Code  Gb  ias_zone_cluster.o [1]
ias_zone_info_init           0x5839    0x36  Code  Gb  ias_zone_cluster.o [1]
ias_zone_off_net_status_reset
                             0x5b8f    0x24  Code  Gb  ias_zone_cluster.o [1]
ias_zone_status_bits    0x2000'bf5e     0x2  Data  Gb  ias_zone_cluster.o [1]
ias_zone_status_pre_update_callback
                             0x5d6f    0x1a  Code  Gb  ias_zone_cluster.o [1]
ias_zone_status_update       0x592b   0x100  Code  Gb  ias_zone_cluster.o [1]
ias_zone_unenroll            0x5bb3    0x58  Code  Gb  ias_zone_cluster.o [1]
ias_zone_write_attr_handler
                             0x5d2d    0x1e  Code  Gb  ias_zone_cluster.o [1]
ieee802154_2p4_coherent_timing
                           0x3'93b4     0xc  Data  Gb  rail_ieee802154_rf_hal.o [17]
ignoreExtendedPanId     0x2000'bf02     0x1  Data  Lc  form-and-join.o [26]
ignoreNonTrustCenter    0x2000'ad89     0x1  Data  Lc  ota-client.o [26]
imageBlockResponseParse
                             0xfa1f   0x1c8  Code  Lc  ota-client.o [26]
imageNotifyParse             0xf48b    0xa2  Code  Lc  ota-client.o [26]
imageNotifyPayloadLengths
                             0xfd64     0x4  Data  Lc  ota-client.o [26]
inRequest               0x2000'b7f0     0x1  Data  Lc  update-tc-link-key.o [26]
inTimerIRQ              0x2000'c198     0x1  Data  Lc  rtcdriver.o [26]
indexIntoBuffers           0x1'0e0b    0x14  Code  Lc  packet-buffer.o [27]
initDone                0x2000'bf25     0x1  Data  Lc  ota-storage-simple.o [26]
initRTCC                0x2000'6790     0x8  Data  Lc  rtcdriver.o [26]
initRTCCCompareChannel  0x2000'6798     0x8  Data  Lc  rtcdriver.o [26]
init_mparams               0x1'23ab    0x2c  Code  Lc  dlmalloc.o [11]
init_top                   0x1'23d7    0x34  Code  Lc  dlmalloc.o [11]
init_uart_base               0x4af9    0xd0  Code  Lc  hal_uart_api.o [26]
initialOutgoingCost     0x2000'd7bd     0x1  Data  Lc  neighbor.o [27]
initialize                 0x1'9f75   0x168  Code  Lc  nvm3.o [16]
initializeChildStatus      0x2'48b7    0x36  Code  Lc  child.o [27]
initializeEndpoint         0x1'40cb    0x4a  Code  Lc  attribute-storage.o [26]
initializeNonceFromAuxFrame
                           0x3'15cd    0x50  Code  Lc  crypto.o [27]
initializeNonceFromBuffer
                           0x3'161d    0x56  Code  Lc  crypto.o [27]
initializeParentNwkInformation
                           0x2'ba2f     0xe  Code  Gb  child-handling.o [27]
initializeRemoteNode         0xdb9f    0x30  Code  Lc  binding-table.o [2]
insertNeighbor             0x1'0335   0x138  Code  Lc  neighbor.o [27]
internalEncryptBlock       0x3'3a91    0x20  Code  Lc  aes.o [27]
internalSleepForMilliseconds
                             0xb1ff    0x14  Code  Lc  system-timer.o [14]
interpanResponseHeader  0x2000'b7b0    0x18  Data  Lc  util.o [26]
invalidateMessageSentCallbackEntry
                           0x1'b031    0x2c  Code  Lc  af-main-common.o [26]
irqState                0x2000'd464     0x4  Data  Gb  nvm3_lock.o [26]
irqTriggered               0x1'8a1d    0x20  Code  Lc  sleep-efm32.o [26]
isCompatibleStackProfile
                           0x1'6439    0x26  Code  Gb  association.o [27]
isDataPoll                 0x2'2489    0x26  Code  Lc  lower-mac-efr32.o [27]
isErased                   0x3'7d93    0x1e  Code  Lc  nvm3_hal_flash.o [26]
isGroupPresent             0x1'd6d3    0x3a  Code  Lc  groups-server.o [26]
isInitialized           0x2000'd7ed     0x1  Data  Lc  btl_interface.o [26]
isItDeviceAnnouncePacket
                           0x1'fb79    0x32  Code  Lc  network.o [27]
isItDeviceAnnouncePacket::deviceAnnouncePacketSignature
                           0x1'fbac     0x8  Data  Lc  network.o [27]
isMultipleOfPageSize       0x2'8349    0x1c  Code  Lc  ota-storage-eeprom-page-erase.o [26]
isStateActiveInCurrentNetwork
                           0x2'8243    0x32  Code  Lc  service-discovery-common.o [26]
is_match_week                0xd15f    0x1e  Code  Lc  dev_common_utils.o [26]
is_primary_st                0xe905    0x1e  Code  Gb  network-steering.o [26]
is_tuya_gw                   0x713d     0xe  Code  Gb  network_manager.o [26]
jitterTimeDelayMs            0xeadb    0x20  Code  Lc  network-steering.o [26]
joinAttemptFailed          0x1'66a9    0x66  Code  Lc  association.o [27]
joinData                0x2000'62c4    0x1c  Data  Lc  association.o [27]
joinNetworkQuietly         0x1'6931    0x4a  Code  Lc  association.o [27]
jsmn_alloc_token           0x2'8f55    0x20  Code  Lc  jsmn.o [26]
jsmn_fill_token            0x2'8f75     0xc  Code  Lc  jsmn.o [26]
jsmn_init                  0x2'92c7     0xe  Code  Gb  jsmn.o [26]
jsmn_parse                 0x2'90d1   0x1f6  Code  Gb  jsmn.o [26]
jsmn_parse_primitive       0x2'8f81    0x7e  Code  Lc  jsmn.o [26]
jsmn_parse_string          0x2'8fff    0xd2  Code  Lc  jsmn.o [26]
json_get_str_value         0x1'15f5    0x90  Code  Gb  mf_test.o [26]
json_get_value             0x1'1575    0x80  Code  Gb  mf_test.o [26]
json_get_value::token   0x2000'ab10   0x200  Data  Lc  mf_test.o [26]
json_value_to_int          0x1'1aa7    0x38  Code  Gb  mf_test.o [26]
keyCount                0x2000'c164     0x2  Data  Lc  aps-keys-transient.o [23]
keyDataCopy             0x2000'bf40    0x10  Data  Lc  aps-security.o [23]
key_check                    0x5553    0xfc  Code  Gb  dev_gpio.o [26]
keys_evt_handler             0x4649    0x96  Code  Gb  app_common.o [1]
lastAgingTime           0x2000'c0a0     0x2  Data  Lc  broadcast.o [27]
lastAgingTimeQs         0x2000'd7aa     0x2  Data  Lc  route-table.o [27]
lastCsmaTxFinishedTimeMs
                        0x2000'6ac0     0x4  Data  Lc  phy.o [27]
lastEventTimeMS         0x2000'c024     0x2  Data  Lc  mac-indirect.o [27]
lastEventTimeMs         0x2000'bf5c     0x2  Data  Lc  aps-retry.o [27]
lastRecordedByteMaskIndex
                        0x2000'677c     0x4  Data  Lc  ota-storage-eeprom-page-erase.o [26]
lastRecordedByteMaskIndexKnown
                        0x2000'd7d6     0x1  Data  Lc  ota-storage-eeprom-page-erase.o [26]
lastRejoinStartTime     0x2000'bfa8     0x4  Data  Lc  network.o [27]
lastReportTimeMin       0x2000'c075     0x1  Data  Lc  zdo-channel.o [27]
lastSleepWakeupMs       0x2000'aeac     0x4  Data  Gb  zigbee_sdk_end_device_handle.o [26]
lastStart               0x2000'c19c     0x4  Data  Lc  rtcdriver.o [26]
lastTxFinishedTimeMs    0x2000'6abc     0x4  Data  Lc  phy.o [27]
lastTxSfdTime           0x2000'6ab8     0x4  Data  Gb  phy.o [27]
lastTxStartedTimeMs     0x2000'65a0     0x4  Data  Lc  phy.o [27]
lastWakeupMs            0x2000'cfcc     0x4  Data  Gb  idle-sleep-soc.o [26]
leaveReason             0x2000'aea0     0x1  Data  Lc  leave.o [27]
libraryEnabled          0x2000'6898     0x1  Data  Lc  packet-validate.o [21]
libraryInfo                0x1'f6b8    0x50  Data  Lc  ember-library.o [27]
link_status_monitor_check
                             0x6f0d    0x60  Code  Gb  network_manager.o [26]
loadedKey               0x2000'd438    0x10  Data  Lc  aes.o [27]
lockBitsInMainFlashSpace
                           0xb'e000  0x2000  Data  Gb  mfg-token.o [26]
longIndirectPool        0x2000'6884     0x1  Data  Lc  mac-indirect.o [27]
lowCallback             0x2000'd400     0x4  Data  Lc  tempdrv.o [26]
lowerMacTick               0x2'2291   0x11c  Code  Lc  lower-mac-efr32.o [27]
macCommandPacketIsValid
                           0x2'f7f7    0x60  Code  Lc  packet-validate.o [21]
macCommandSizes            0x2'fa60     0xc  Data  Lc  packet-validate.o [21]
macIsInactive           0x2000'c074     0x1  Data  Lc  zdo-channel.o [27]
macMakeShortIdCommand      0x2'c799    0x2c  Code  Lc  command.o [27]
macOnlyCounters              0xcfe8     0x8  Data  Lc  ember-stack-common.o [27]
macPermitAssn           0x2000'd7dd     0x1  Data  Lc  command.o [27]
macReallyKickstart         0x2'3e83   0x166  Code  Lc  upper-mac.o [27]
macState                0x2000'c0a8    0x88  Data  Gb  lower-mac-efr32.o [27]
macSymbolTimerExpiredHandlerIsr
                           0x2'2465     0x4  Code  Lc  lower-mac-efr32.o [27]
magicNumberBytes           0x2'7d60     0x4  Data  Lc  ota-storage-simple.o [26]
main                         0xb5e1    0x18  Code  Gb  silicon_lab_modify.o [26]
malloc_zcl_send_data         0x7c91    0x56  Code  Lc  zigbee_sdk_core.o [26]
mapMacPgChanToPhyChanBand
                           0x1'b7e1    0x94  Code  Lc  phy.o [27]
masterOrCertificationAlgorithm
                           0x3'3161    0x88  Code  Lc  zll-security.o [29]
matchingPoolAddress        0x2'2bc1    0x4c  Code  Lc  mac-indirect.o [27]
maybeCallNextHandler       0x1'f50f    0x50  Code  Lc  scan-dispatch.o [26]
maybeSendAddressResponse
                           0x2'be85   0x1a0  Code  Lc  zigbee-device-util.o [27]
mbedtls_aes_crypt_ecb_radio
                           0x3'7949    0xb4  Code  Gb  radioaes_aes.o [27]
memchr                     0x3'3c99          Code  Gb  memchr.o [22]
memset                     0x2'd78d    0x14  Code  Gb  memset.o [22]
messageLengths             0x3'2f08     0xc  Data  Gb  zll-interpan.o [29]
messageSentCallbacks    0x2000'b8d8   0x1e0  Data  Lc  af-main-common.o [26]
mf_test_disable_beacon_test
                           0x1'22af     0x8  Code  Gb  mf_test.o [26]
mf_test_is_doing           0x1'22b7    0x10  Code  Gb  mf_test.o [26]
mf_test_uart_config          0x4491    0x3e  Code  Gb  app_common.o [1]
mfglibEnd                  0x2'8e49    0x80  Code  Gb  mfglib.o [19]
mfglibGetChannel           0x2'8f37     0x4  Code  Gb  mfglib.o [19]
mfglibSendPacket           0x2'8ec9    0x58  Code  Gb  mfglib.o [19]
mfglibSetChannel           0x2'8f21    0x16  Code  Gb  mfglib.o [19]
mfglibStart                0x2'8de1    0x68  Code  Gb  mfglib.o [19]
minBlockRequestPeriod   0x2000'ad9e     0x2  Data  Lc  ota-client.o [26]
minRejoinPeriodMillisec
                        0x2000'6844     0x2  Data  Lc  aps-security.o [23]
minTicks                0x2000'c1b4     0x4  Data  Lc  ustimer.o [26]
mod_sqrt_default           0x2'9d05    0x78  Code  Lc  uECC.o [26]
mparams                 0x2000'd5a8    0x18  Data  Lc  dlmalloc.o [11]
mscStatusWait           0x2000'5eb9    0x3a  Code  Gb  em_msc.o [26]
mtorFlags                  0x3'4744     0x8  Data  Lc  zigbee-device.o [27]
muladd                     0x2'96d5    0x2e  Code  Lc  uECC.o [26]
multiNetworkCounterHandler
                           0x2'a6f1    0x40  Code  Lc  counters-soc.o [26]
multiNetworkCounterTable
                           0x2'a754    0x14  Data  Lc  counters-soc.o [26]
myEndpoint              0x2000'6822     0x1  Data  Lc  ota-client.o [26]
myLastResponseId        0x2000'c174     0x4  Data  Lc  zll-interpan.o [29]
myLastTransactionId     0x2000'c17c     0x4  Data  Lc  zll-interpan.o [29]
myPtaStackEvent            0x1'b6fd    0x3e  Code  Lc  phy.o [27]
networkCommandBaseSizes
                           0x2'fa6c    0x10  Data  Lc  packet-validate.o [21]
networkCommandPacketIsValid
                           0x2'f8ad    0x9c  Code  Lc  packet-validate.o [21]
networkCount            0x2000'bf03     0x1  Data  Lc  form-and-join.o [26]
networkDecrypt             0x1'ffd1   0x1a0  Code  Lc  network.o [27]
networkFoundCallback         0xebdd    0x54  Code  Lc  network-steering.o [26]
networkInitData         0x2000'adfc     0x2  Data  Lc  association.o [27]
networkPacketIsValid       0x2'f857    0x56  Code  Lc  packet-validate.o [21]
networkScanProcedure    0x2000'bf66     0x1  Data  Lc  scan.o [27]
networkSubmitUnicast       0x1'fed5    0x82  Code  Lc  network.o [27]
network_recover              0x6347    0xa6  Code  Gb  network_manager.o [26]
newChannel              0x2000'd7bb     0x1  Data  Lc  association.o [27]
newDeviceHandler           0x2'cf71    0xcc  Code  Lc  trust-center-util.o [23]
newEraseOperation       0x2000'bf2c     0x1  Data  Lc  ota-storage-eeprom-page-erase.o [26]
newNetwork              0x2000'ae50    0x18  Data  Lc  zll-api.o [29]
newNodeId               0x2000'6828     0x2  Data  Lc  zll-api.o [29]
newNwkUpdateId          0x2000'c071     0x1  Data  Lc  zdo-channel.o [27]
newPanId                0x2000'6846     0x2  Data  Lc  management.o [27]
nextApsFrameCounter     0x2000'd434     0x4  Data  Lc  aps-encryption.o [23]
nextBeaconIsEnhanced    0x2000'ae00     0x1  Data  Gb  association.o [27]
nextChannel             0x2000'bf60     0x1  Data  Lc  scan.o [27]
nextEventTimer          0x2000'ada4     0x4  Data  Lc  ota-client.o [26]
nextIncomingRssi        0x2000'bf80     0x4  Data  Lc  scan.o [27]
nextIndex               0x2000'a867     0x1  Data  Lc  security-address-cache.o [26]
nextOutgoingRssi        0x2000'bf7c     0x4  Data  Lc  scan.o [27]
nodeThatToldUsToLeave   0x2000'682a     0x2  Data  Lc  leave.o [27]
noteDiscoveryTimeout       0x2'1d8f    0x72  Code  Lc  route-table.o [27]
notePreconfiguredKeyType
                           0x2'77c5    0x16  Code  Lc  aps-security.o [23]
notifyTrustCenter            0xe735    0x28  Code  Lc  leave.o [27]
nullCallback            0x2000'd404     0x8  Data  Lc  tempdrv.o [26]
nullEui                    0x1'a8cc     0x8  Data  Lc  mfg-token.o [26]
nvm3Storage                0xb'6000  0x8000  Data  Gb  nvm3_default.o [26]
nvm3_cacheClear            0x2'decb    0x24  Code  Gb  nvm3_cache.o [16]
nvm3_cacheDelete           0x2'deef    0x2c  Code  Gb  nvm3_cache.o [16]
nvm3_cacheGet              0x2'df1b    0x50  Code  Gb  nvm3_cache.o [16]
nvm3_cacheOpen             0x2'dec7     0x4  Code  Gb  nvm3_cache.o [16]
nvm3_cacheSet              0x2'df6d   0x19a  Code  Gb  nvm3_cache.o [16]
nvm3_defaultHandle      0x2000'67a0     0x4  Data  Gb  nvm3_default.o [26]
nvm3_defaultHandleData  0x2000'6b98    0x68  Data  Gb  nvm3_default.o [26]
nvm3_defaultInit        0x2000'67c0     0x4  Data  Gb  nvm3_default.o [26]
nvm3_defaultInitData    0x2000'67a4    0x1c  Data  Gb  nvm3_default.o [26]
nvm3_deleteObject          0x1'a545    0x54  Code  Gb  nvm3.o [16]
nvm3_getObjectInfo         0x1'a4c1    0x6c  Code  Gb  nvm3.o [16]
nvm3_halFlashAccess        0x3'7de9     0x2  Code  Lc  nvm3_hal_flash.o [26]
nvm3_halFlashClose         0x3'7dbb     0x4  Code  Lc  nvm3_hal_flash.o [26]
nvm3_halFlashGetInfo       0x3'7dbf    0x2a  Code  Lc  nvm3_hal_flash.o [26]
nvm3_halFlashHandle        0x3'9354    0x1c  Data  Gb  nvm3_hal_flash.o [26]
nvm3_halFlashOpen          0x3'7db1     0xa  Code  Lc  nvm3_hal_flash.o [26]
nvm3_halFlashPageErase     0x3'7e2b    0x26  Code  Lc  nvm3_hal_flash.o [26]
nvm3_halFlashReadWords     0x3'7deb    0x14  Code  Gb  nvm3_hal_flash.o [26]
nvm3_halFlashWriteWords
                           0x3'7dff    0x2c  Code  Lc  nvm3_hal_flash.o [26]
nvm3_incrementCounter      0x1'a44b    0x68  Code  Gb  nvm3.o [16]
nvm3_internalObjectHandleA
                        0x2000'd468    0x2c  Data  Gb  nvm3_lock.o [26]
nvm3_internalObjectHandleB
                        0x2000'd494    0x2c  Data  Gb  nvm3_lock.o [26]
nvm3_internalObjectHandleC
                        0x2000'd4c0    0x2c  Data  Gb  nvm3_lock.o [26]
nvm3_internalObjectHandleD
                        0x2000'd4ec    0x2c  Data  Gb  nvm3_lock.o [26]
nvm3_lockBegin             0x2'e145    0x18  Code  Wk  nvm3_lock.o [26]
nvm3_lockEnd               0x2'e15d    0x1c  Code  Wk  nvm3_lock.o [26]
nvm3_maxFragmentCount      0x3'acb1     0x1  Data  Gb  nvm3_lock.o [26]
nvm3_objGroupToType        0x2'de3d    0x18  Code  Gb  nvm3_object.o [16]
nvm3_objHandleSize         0x3'9370     0x4  Data  Gb  nvm3_lock.o [26]
nvm3_objHdrGetDatLen       0x2'dddf    0x24  Code  Gb  nvm3_object.o [16]
nvm3_objHdrGetErased       0x2'dd9f    0x10  Code  Gb  nvm3_object.o [16]
nvm3_objHdrGetFragTyp      0x2'ddaf    0x16  Code  Gb  nvm3_object.o [16]
nvm3_objHdrGetHdrIsLarge
                           0x2'ddcd     0x2  Code  Gb  nvm3_object.o [16]
nvm3_objHdrGetHdrLen       0x2'ddcf    0x10  Code  Gb  nvm3_object.o [16]
nvm3_objHdrGetKey          0x2'ddc5     0x8  Code  Gb  nvm3_object.o [16]
nvm3_objHdrGetType         0x2'de03     0x8  Code  Gb  nvm3_object.o [16]
nvm3_objHdrInit            0x2'dccf    0x70  Code  Gb  nvm3_object.o [16]
nvm3_objHdrValidateLarge
                           0x2'dd73    0x22  Code  Gb  nvm3_object.o [16]
nvm3_objHdrValidateSmall
                           0x2'dd3f    0x20  Code  Gb  nvm3_object.o [16]
nvm3_objInit               0x2'de0b    0x28  Code  Gb  nvm3_object.o [16]
nvm3_objTypeToGroup        0x2'de55    0x22  Code  Gb  nvm3_object.o [16]
nvm3_open                  0x1'a111   0x184  Code  Gb  nvm3.o [16]
nvm3_pageErase             0x2'dc83    0x38  Code  Gb  nvm3_page.o [16]
nvm3_pageGetEraseCnt       0x2'dbbf    0x50  Code  Gb  nvm3_page.o [16]
nvm3_pageGetFirstObj       0x2'dc7f     0x4  Code  Gb  nvm3_page.o [16]
nvm3_pageGetState          0x2'dc0f    0x50  Code  Gb  nvm3_page.o [16]
nvm3_pageHeaderWrite       0x2'daa1    0xac  Code  Gb  nvm3_page.o [16]
nvm3_pageSetBad            0x2'db5b    0x1e  Code  Gb  nvm3_page.o [16]
nvm3_pageSetEip            0x2'db79    0x3a  Code  Gb  nvm3_page.o [16]
nvm3_pageStateIsGood       0x2'dc5f    0x10  Code  Gb  nvm3_page.o [16]
nvm3_pageStateIsInvalid
                           0x2'dc6f    0x10  Code  Gb  nvm3_page.o [16]
nvm3_readCounter           0x1'a3c9    0x50  Code  Gb  nvm3.o [16]
nvm3_readData              0x1'a2df    0x68  Code  Gb  nvm3.o [16]
nvm3_utilsComputeBergerCode
                           0x2'e107    0x3e  Code  Gb  nvm3_utils.o [16]
nvm3_writeCounter          0x1'a347    0x82  Code  Gb  nvm3.o [16]
nvm3_writeData             0x1'a299    0x34  Code  Gb  nvm3.o [16]
nwkSequenceNumber       0x2000'd7d4     0x1  Data  Lc  application-support.o [27]
nwkUpdateIdSameOrNewer     0x2'1499    0x24  Code  Lc  zll-api.o [29]
nwk_evt_record_handle        0x6629    0x60  Code  Gb  network_manager.o [26]
nwk_stack_init               0x654d    0x6e  Code  Gb  network_manager.o [26]
nwk_state_changed_callback
                             0xd569    0xe8  Code  Gb  simple_contact_sensor_callback.o [1]
nwk_state_get                0x65c7     0x8  Code  Gb  network_manager.o [26]
nwk_state_set                0x669f    0xde  Code  Gb  network_manager.o [26]
nwk_token_clean              0x6313    0x34  Code  Gb  network_manager.o [26]
oem_cfg                 0x2000'a910   0x200  Data  Lc  mf_test.o [26]
oem_ret_send               0x1'1cc1    0x4e  Code  Lc  mf_test.o [26]
oldAddressMatchingEnabled
                        0x2000'cfdc     0x1  Data  Lc  mfglib.o [19]
oldAutoAckEnabled       0x2000'cfdd     0x1  Data  Lc  mfglib.o [19]
oldChan                 0x2000'cfde     0x1  Data  Lc  mfglib.o [19]
oldCheckCca             0x2000'cfe0     0x1  Data  Lc  mfglib.o [19]
oldPower                0x2000'cfdf     0x1  Data  Lc  mfglib.o [19]
oldRadioIdleMode        0x2000'cfda     0x1  Data  Lc  mfglib.o [19]
oldRadioSleep           0x2000'cfdb     0x1  Data  Lc  mfglib.o [19]
oldTxPowerMode          0x2000'cfe2     0x2  Data  Lc  mfglib.o [19]
omega_mult_secp160r1       0x2'9e47    0x48  Code  Lc  uECC.o [26]
oneScanDone             0x2000'c076     0x1  Data  Lc  zdo-channel.o [27]
open_uart0                   0x4e57    0x16  Code  Lc  hal_uart_api.o [26]
originalChannel         0x2000'bf63     0x1  Data  Lc  scan.o [27]
originalPanId           0x2000'bf70     0x2  Data  Lc  scan.o [27]
originalRadioIdleMode   0x2000'6856     0x1  Data  Lc  zll-api.o [29]
originalRadioIdleMode   0x2000'bf64     0x1  Data  Lc  scan.o [27]
originalRadioPower      0x2000'ae3c     0x1  Data  Lc  zll-api.o [29]
otaClientTick                0xef89    0x96  Code  Lc  ota-client.o [26]
otaStorageEepromGetImageInfoStartAddress
                           0x1'd129     0x6  Code  Gb  ota-storage-eeprom.o [26]
otaStorageEepromGetStorageEndAddress
                           0x1'd123     0x6  Code  Gb  ota-storage-eeprom.o [26]
otaStorageEepromGetStorageStartAddress
                           0x1'd11d     0x6  Code  Gb  ota-storage-eeprom.o [26]
ota_verify_after_download
                             0xb6ad     0x4  Code  Gb  silicon_lab_modify.o [26]
outGoingZllNwkRequestCommandId
                        0x2000'6893     0x1  Data  Lc  zll-interpan.o [29]
outgoingBeaconSequenceNumber
                        0x2000'd7de     0x1  Data  Lc  upper-mac.o [27]
paInit2p4                  0x3'84bc     0x8  Data  Lc  micro.o [26]
packetChecks               0x2'fa98    0x30  Data  Lc  packet-validate.o [21]
pageAdrFromIdx             0x1'8c27     0xa  Code  Lc  nvm3.o [16]
pageEraseStatus         0x2000'6894     0x1  Data  Lc  eeprom.o [26]
pageFreeSize               0x1'8c89     0xa  Code  Lc  nvm3.o [16]
pageHdrCounterMake         0x2'da71    0x30  Code  Lc  nvm3_page.o [16]
pageHdrGetCounterVal       0x2'da65     0xc  Code  Lc  nvm3_page.o [16]
pageIdxFromAdr             0x1'8c31     0xc  Code  Lc  nvm3.o [16]
pagesRepack                0x1'8b95    0x1a  Code  Lc  nvm3.o [16]
panConflictMeter        0x2000'd7da     0x1  Data  Lc  management.o [27]
panIdScanComplete          0x1'f29b    0x38  Code  Lc  form-and-join.o [26]
parentAnnounceIndex     0x2000'c05e     0x1  Data  Gb  zigbee-device-util.o [27]
parentClassificationGoodSignal
                           0x1'645f    0x16  Code  Lc  association.o [27]
parentNwkInformation    0x2000'c03a     0x2  Data  Gb  child-handling.o [27]
parseNetworkRequest        0x3'281b    0xe6  Code  Lc  zll-interpan.o [29]
pclkDivMax                 0x1'621d     0x8  Code  Lc  em_cmu.o [26]
pclkDivOptimize            0x1'6225    0x1e  Code  Lc  em_cmu.o [26]
pendingAckedCount       0x2000'bf50     0x1  Data  Lc  aps-retry.o [27]
pendingNwkUpdateChannel
                        0x2000'6889     0x1  Data  Gb  zdo-channel.o [27]
pendingNwkUpdatePanId   0x2000'6848     0x2  Data  Lc  management.o [27]
pendsv_trigger               0x61a1    0x14  Code  Lc  dev_evt_pool.o [26]
per_dev_init                 0x44cf    0x30  Code  Gb  app_common.o [1]
permitJoining           0x2000'ade8     0x1  Data  Lc  association.o [27]
phy2SubBandConfig       0x2000'6ab0     0x4  Data  Lc  phy.o [27]
phy2SubBandParams       0x2000'6ab4     0x4  Data  Lc  phy.o [27]
phyDcSendPktAsap           0x2'25ed     0x4  Code  Lc  lower-mac-efr32.o [27]
phyTimerTick               0x1'c761    0x3a  Code  Lc  phy.o [27]
pid_write_disable_flag  0x2000'a864     0x1  Data  Lc  mf_test.o [26]
pid_write_disable_set      0x1'122b     0x8  Code  Gb  mf_test.o [26]
poll_ack_handle              0x9835    0xb0  Code  Lc  zigbee_sdk_end_device_handle.o [26]
poll_ack_handle::conntinue_busy_times
                        0x2000'aeb8     0x2  Data  Lc  zigbee_sdk_end_device_handle.o [26]
poll_ack_handle::poll_times
                        0x2000'aeb6     0x2  Data  Lc  zigbee_sdk_end_device_handle.o [26]
pop_queue                  0x1'3897    0x34  Code  Gb  dev_queue.o [26]
power_attr_list            0x3'80f8    0x30  Data  Gb  device_register.o [1]
power_on_init                0x7671    0x40  Code  Gb  zigbee_sdk_core.o [26]
power_sampler_init           0x47c3    0x3c  Code  Gb  app_common.o [1]
powers10                   0x3'8438    0x24  Data  Lc  ember-printf.o [26]
preTxOp                 0x2000'6acc     0x4  Data  Lc  phy.o [27]
prepareForResponse         0x1'4665    0x74  Code  Lc  util.o [26]
primaryChannel          0x2000'd7e4     0x1  Data  Lc  zll-interpan.o [29]
printIncomingZclMessage
                           0x1'4757     0x2  Code  Lc  util.o [26]
printMessage               0x1'b501     0x2  Code  Lc  af-main-common.o [26]
printedMaxPanIdsWarning
                        0x2000'adad     0x1  Data  Lc  network-steering.o [26]
processActiveEndpointResponse
                           0x2'8089    0x58  Code  Lc  service-discovery-common.o [26]
processAddressResponse     0x2'8037    0x52  Code  Lc  service-discovery-common.o [26]
processCommonNetworkParams
                           0x3'2931    0x40  Code  Lc  zll-interpan.o [29]
processDeviceAnnounceAndFindIdConflict
                           0x2'099d    0xb8  Code  Lc  network.o [27]
processKeyCommand          0x2'7477   0x2ba  Code  Lc  aps-security.o [23]
processMatchDescriptorResponse
                           0x2'7ef7    0x58  Code  Lc  service-discovery-common.o [26]
processScanRequest         0x2'3019   0x13c  Code  Lc  zdo-channel.o [27]
processScanResponse        0x3'26b1   0x160  Code  Lc  zll-interpan.o [29]
processSimpleDescriptorResponse
                           0x2'7f4f    0xe8  Code  Lc  service-discovery-common.o [26]
processZigbeePacket        0x2'031d   0x532  Code  Lc  network.o [27]
prsRxInput                   0x8d59    0x38  Code  Lc  em_usart.o [26]
prviate_evt_control_handler_0
                             0x5db3    0x10  Code  Gb  dev_evt_pool.o [26]
prviate_evt_control_handler_1
                             0x5dc3    0x10  Code  Gb  dev_evt_pool.o [26]
prviate_evt_control_handler_10
                             0x5e53    0x10  Code  Gb  dev_evt_pool.o [26]
prviate_evt_control_handler_11
                             0x5e63    0x10  Code  Gb  dev_evt_pool.o [26]
prviate_evt_control_handler_12
                             0x5e73    0x10  Code  Gb  dev_evt_pool.o [26]
prviate_evt_control_handler_13
                             0x5e83    0x10  Code  Gb  dev_evt_pool.o [26]
prviate_evt_control_handler_14
                             0x5e93    0x10  Code  Gb  dev_evt_pool.o [26]
prviate_evt_control_handler_15
                             0x5ea3    0x10  Code  Gb  dev_evt_pool.o [26]
prviate_evt_control_handler_16
                             0x5eb3    0x10  Code  Gb  dev_evt_pool.o [26]
prviate_evt_control_handler_17
                             0x5ec3    0x10  Code  Gb  dev_evt_pool.o [26]
prviate_evt_control_handler_18
                             0x5ed3    0x10  Code  Gb  dev_evt_pool.o [26]
prviate_evt_control_handler_19
                             0x5ee3    0x10  Code  Gb  dev_evt_pool.o [26]
prviate_evt_control_handler_2
                             0x5dd3    0x10  Code  Gb  dev_evt_pool.o [26]
prviate_evt_control_handler_20
                             0x5ef3    0x10  Code  Gb  dev_evt_pool.o [26]
prviate_evt_control_handler_21
                             0x5f03    0x10  Code  Gb  dev_evt_pool.o [26]
prviate_evt_control_handler_22
                             0x5f13    0x10  Code  Gb  dev_evt_pool.o [26]
prviate_evt_control_handler_23
                             0x5f23    0x10  Code  Gb  dev_evt_pool.o [26]
prviate_evt_control_handler_24
                             0x5f33    0x10  Code  Gb  dev_evt_pool.o [26]
prviate_evt_control_handler_25
                             0x5f43    0x10  Code  Gb  dev_evt_pool.o [26]
prviate_evt_control_handler_26
                             0x5f53    0x10  Code  Gb  dev_evt_pool.o [26]
prviate_evt_control_handler_27
                             0x5f63    0x10  Code  Gb  dev_evt_pool.o [26]
prviate_evt_control_handler_28
                             0x5f73    0x10  Code  Gb  dev_evt_pool.o [26]
prviate_evt_control_handler_29
                             0x5f83    0x10  Code  Gb  dev_evt_pool.o [26]
prviate_evt_control_handler_3
                             0x5de3    0x10  Code  Gb  dev_evt_pool.o [26]
prviate_evt_control_handler_30
                             0x5f93    0x10  Code  Gb  dev_evt_pool.o [26]
prviate_evt_control_handler_31
                             0x5fa3    0x10  Code  Gb  dev_evt_pool.o [26]
prviate_evt_control_handler_32
                             0x5fb3    0x10  Code  Gb  dev_evt_pool.o [26]
prviate_evt_control_handler_33
                             0x5fc3    0x10  Code  Gb  dev_evt_pool.o [26]
prviate_evt_control_handler_34
                             0x5fd3    0x10  Code  Gb  dev_evt_pool.o [26]
prviate_evt_control_handler_35
                             0x5fe3    0x10  Code  Gb  dev_evt_pool.o [26]
prviate_evt_control_handler_36
                             0x5ff3    0x10  Code  Gb  dev_evt_pool.o [26]
prviate_evt_control_handler_37
                             0x6003    0x10  Code  Gb  dev_evt_pool.o [26]
prviate_evt_control_handler_38
                             0x6013    0x10  Code  Gb  dev_evt_pool.o [26]
prviate_evt_control_handler_39
                             0x6023    0x10  Code  Gb  dev_evt_pool.o [26]
prviate_evt_control_handler_4
                             0x5df3    0x10  Code  Gb  dev_evt_pool.o [26]
prviate_evt_control_handler_40
                             0x6033    0x10  Code  Gb  dev_evt_pool.o [26]
prviate_evt_control_handler_41
                             0x6043    0x10  Code  Gb  dev_evt_pool.o [26]
prviate_evt_control_handler_42
                             0x6053    0x10  Code  Gb  dev_evt_pool.o [26]
prviate_evt_control_handler_43
                             0x6063    0x10  Code  Gb  dev_evt_pool.o [26]
prviate_evt_control_handler_44
                             0x6073    0x10  Code  Gb  dev_evt_pool.o [26]
prviate_evt_control_handler_45
                             0x6083    0x10  Code  Gb  dev_evt_pool.o [26]
prviate_evt_control_handler_46
                             0x6093    0x10  Code  Gb  dev_evt_pool.o [26]
prviate_evt_control_handler_47
                             0x60a3    0x10  Code  Gb  dev_evt_pool.o [26]
prviate_evt_control_handler_48
                             0x60b3    0x10  Code  Gb  dev_evt_pool.o [26]
prviate_evt_control_handler_49
                             0x60c3    0x10  Code  Gb  dev_evt_pool.o [26]
prviate_evt_control_handler_5
                             0x5e03    0x10  Code  Gb  dev_evt_pool.o [26]
prviate_evt_control_handler_50
                             0x60d3     0xe  Code  Gb  dev_evt_pool.o [26]
prviate_evt_control_handler_6
                             0x5e13    0x10  Code  Gb  dev_evt_pool.o [26]
prviate_evt_control_handler_7
                             0x5e23    0x10  Code  Gb  dev_evt_pool.o [26]
prviate_evt_control_handler_8
                             0x5e33    0x10  Code  Gb  dev_evt_pool.o [26]
prviate_evt_control_handler_9
                             0x5e43    0x10  Code  Gb  dev_evt_pool.o [26]
prviate_evt_control_list
                        0x2000'6fd8   0x198  Data  Gb  dev_evt_pool.o [26]
ptaEnabled              0x2000'6a94     0x1  Data  Lc  phy.o [27]
ptaGntEventReported     0x2000'd7e0     0x1  Data  Lc  lower-mac-efr32.o [27]
ptiEnabled              0x2000'6586     0x1  Data  Lc  phy.o [27]
public_key              0x2000'6300    0x28  Data  Gb  ecc_use.o [26]
pushEui64                  0x2'6651    0x10  Code  Lc  zigbee-packet-header.o [27]
pushInt16u                 0x2'6647     0xa  Code  Lc  zigbee-packet-header.o [27]
push_queue                 0x1'3865    0x32  Code  Gb  dev_queue.o [26]
putImageInfoInMessage        0xf229    0x1c  Code  Lc  ota-client.o [26]
putReportableChangeInResp
                           0x1'df49    0x58  Code  Lc  reporting.o [26]
queryNextImage               0xf7c5    0x7c  Code  Lc  ota-client.o [26]
queryNextImageResponseParse
                             0xf5bb    0xb6  Code  Lc  ota-client.o [26]
quietlyEraseChild          0x2'4db5    0x5a  Code  Lc  child.o [27]
radioCheckCrc           0x2000'6585     0x1  Data  Lc  phy.o [27]
radioConfig                0x3'93c8     0x8  Data  Lc  radio_config_em3xxx_2.4GHz.o [27]
radioCurrentPowerStatus
                        0x2000'658a     0x1  Data  Gb  phy.o [27]
radioIdlePowerState     0x2000'6589     0x1  Data  Lc  phy.o [27]
radioInited             0x2000'6a8c     0x1  Data  Lc  phy.o [27]
radioNetworkSwitchEnabled
                        0x2000'685c     0x1  Data  Lc  ember-multi-network-stub.o [20]
radioOkToIdle              0x2'25f1     0x4  Code  Lc  lower-mac-efr32.o [27]
radioSchedulerPriorityTable
                        0x2000'6580     0x4  Data  Lc  phy.o [27]
radioTransmitCompleteInternalCallback
                           0x2'223f    0x36  Code  Lc  lower-mac-efr32.o [27]
radioTransmitConfig     0x2000'62e4     0x8  Data  Gb  zigbee-stack.o [27]
radioaes_acquire           0x3'7cad    0x28  Code  Gb  radioaes.o [27]
radioaes_release           0x3'7cd5     0x8  Code  Gb  radioaes.o [27]
radioaes_restoreState      0x3'7d17    0x2c  Code  Gb  radioaes.o [27]
radioaes_saveState         0x3'7ce9    0x2e  Code  Gb  radioaes.o [27]
railCfg                 0x2000'65a4   0x15c  Data  Lc  phy.o [27]
railSchedState          0x2000'bbd0    0x64  Data  Lc  phy.o [27]
random_ms                    0xd139    0x26  Code  Gb  dev_common_utils.o [26]
readAndValidateStoredImage
                           0x2'7af1   0x160  Code  Lc  ota-storage-simple.o [26]
readCounter                0x1'9d21    0xc6  Code  Lc  nvm3.o [16]
readIdentifyTime           0x2'abb9    0x18  Code  Lc  identify.o [26]
readNetworkTokens          0x1'7b5b    0x56  Code  Lc  association.o [27]
readNodeData               0x1'7bb5     0xc  Code  Lc  association.o [27]
readWritePrimitive         0x1'cf71    0xca  Code  Lc  ota-storage-eeprom.o [26]
recalculateMacDataPendingBitField
                           0x2'2c15    0x36  Code  Lc  mac-indirect.o [27]
receivedTimeoutResponse
                        0x2000'c02c     0x1  Data  Gb  child-handling.o [27]
recordServerEuiAndGoToNextState
                             0xf0dd    0x1e  Code  Lc  ota-client.o [26]
recordUpgradeStatus          0xf2ed    0x2e  Code  Lc  ota-client.o [26]
record_latest_rf_time        0x97c9     0xc  Code  Gb  zigbee_sdk_end_device_handle.o [26]
recyclePendingAckedMessages
                           0x2'31c1    0x48  Code  Lc  aps-retry.o [27]
reenqueueStoreAndForwardSubmitHead
                           0x3'118d    0x5c  Code  Lc  store-forward.o [27]
reenqueueSubmitHead        0x2'476b    0x7c  Code  Lc  retry.o [27]
rejoinMode              0x2000'687a     0x1  Data  Lc  aps-security.o [23]
removeConfiguration        0x1'dca3    0x24  Code  Lc  reporting.o [26]
removeConfigurationAndScheduleTick
                           0x1'dcc7     0xc  Code  Lc  reporting.o [26]
removeEntryFromGroupTable
                           0x1'd39b    0x42  Code  Lc  groups-server.o [26]
removeFromBuffer           0x1'fc49    0x2e  Code  Lc  network.o [27]
repackFirstPageCallback
                           0x1'98bd    0x42  Code  Lc  nvm3.o [16]
repackWorker               0x1'9a59    0xfa  Code  Lc  nvm3.o [16]
report_tick_evt_handle       0xc301    0x16  Code  Gb  silicon_lab_modify.o [26]
requestKeyBuffer        0x2000'6882     0x1  Data  Lc  trust-center-util.o [23]
rescheduleRtc              0x1'86e1    0x82  Code  Lc  rtcdriver.o [26]
resetRejoiningNeighborsFC
                        0x2000'6855     0x1  Data  Lc  neighbor.o [27]
responseTimeoutRemaining
                        0x2000'c02d     0x1  Data  Gb  child-handling.o [27]
restartListening           0x1'b8d7    0x46  Code  Lc  phy.o [27]
restartNetworkOperation
                           0x2'17e3    0x5e  Code  Lc  zll-api.o [29]
restartServerDiscoveryAfterDelay
                             0xf039    0x12  Code  Lc  ota-client.o [26]
retryCurrentMessageInUpdateTcLinkKey
                           0x2'5403    0x3a  Code  Gb  aps-keys.o [23]
retryTxBusy             0x2000'bfc2     0x1  Data  Lc  retry.o [27]
rhoActive               0x2000'6a97     0x1  Data  Lc  phy.o [27]
routeRequestId          0x2000'd7ec     0x1  Data  Lc  route-discovery.o [27]
routeTableTimer         0x2000'd7a8     0x1  Data  Lc  route-table.o [27]
routingShortcutThreshold
                        0x2000'6854     0x1  Data  Lc  neighbor.o [27]
rtcRunning              0x2000'c199     0x1  Data  Lc  rtcdriver.o [26]
rtccClkGet                 0x1'6249    0x46  Code  Lc  em_cmu.o [26]
rtcdrvIsInitialized     0x2000'c19a     0x1  Data  Lc  rtcdriver.o [26]
runEventHandler            0x2'33ab   0x14c  Code  Lc  aps-retry.o [27]
runUpgrade                   0xfd0d    0x12  Code  Lc  ota-client.o [26]
rxAlwaysOn              0x2000'ae69     0x1  Data  Lc  zll-api.o [29]
rxBuffer                0x2000'bc34    0x8c  Data  Lc  phy.o [27]
samePage                   0x1'8c3d    0x16  Code  Lc  nvm3.o [16]
saveNetwork                0x1'f44b    0x6a  Code  Lc  form-and-join.o [26]
savedAssertInfo         0x2000'cfd0     0x8  Data  Lc  cstartup-common.o [26]
savedResetCause         0x2000'cfd8     0x2  Data  Lc  cstartup-common.o [26]
scanAttempts            0x2000'd7e5     0x1  Data  Lc  zll-interpan.o [29]
scanChannelMask         0x2000'bf78     0x4  Data  Lc  scan.o [27]
scanCompleteCallback         0xebcb    0x12  Code  Lc  network-steering.o [26]
scanDataCache           0x2000'687e     0x1  Data  Gb  scan.o [27]
scanDuration            0x2000'bf61     0x1  Data  Lc  scan.o [27]
scanFrameCounter        0x2000'bf74     0x4  Data  Lc  scan.o [27]
scanPage                   0x1'8d3f    0x38  Code  Lc  nvm3.o [16]
scanRequestHeader       0x2000'688a     0x1  Data  Lc  zdo-channel.o [27]
scanRequestInformation  0x2000'6857     0x1  Data  Lc  zll-api.o [29]
scanResults             0x2000'688b     0x1  Data  Lc  zdo-channel.o [27]
scanResultsHandler           0xec31    0x18  Code  Lc  network-steering.o [26]
scanTransmitRetries     0x2000'bf62     0x1  Data  Lc  scan.o [27]
scansRemaining          0x2000'c073     0x1  Data  Lc  zdo-channel.o [27]
scheduleIdentifyTick       0x2'abe9    0x60  Code  Lc  identify.o [26]
scheduleTick               0x1'dbf9    0xaa  Code  Lc  reporting.o [26]
score                      0x2'8715     0xc  Code  Lc  neighbor-exchange.o [27]
sdk_cb_handle                0x869b    0x3e  Code  Gb  zigbee_sdk_core.o [26]
sdk_cb_heartbeat             0x8641     0x8  Code  Lc  zigbee_sdk_core.o [26]
sdk_cb_poll                  0x8649    0x2e  Code  Lc  zigbee_sdk_core.o [26]
sdk_cb_report_battery        0x8677    0x24  Code  Lc  zigbee_sdk_core.o [26]
sdk_cb_time_sync             0x8639     0x8  Code  Lc  zigbee_sdk_core.o [26]
sdk_is_enable_flash_op     0x2'f09b     0x6  Code  Gb  bootloader-interface-app.o [26]
sdk_uart_config         0x2000'7350  0x1050  Data  Lc  hal_uart_api.o [26]
sdk_use_multi_key_join       0x88c9     0x6  Code  Gb  zigbee_sdk_core.o [26]
sec_hand                0x2000'd79c     0x4  Data  Lc  xfail_s.o [11]
securityAddressCacheInit
                           0x1'b6e9     0xc  Code  Gb  security-address-cache.o [26]
securityJoinNotify         0x2'78b5     0xe  Code  Lc  af-trust-center.o [26]
seed0                   0x2000'682e     0x2  Data  Gb  random.o [26]
seed1                   0x2000'6830     0x2  Data  Gb  random.o [26]
segment_holding            0x1'2391    0x1a  Code  Lc  dlmalloc.o [11]
send                       0x1'b0a7   0x1b4  Code  Lc  af-main-common.o [26]
sendAckedUnicast           0x2'34f7    0xfa  Code  Lc  aps-retry.o [27]
sendApplicationKeys        0x2'd2a3    0xe4  Code  Lc  trust-center-util.o [23]
sendCommandZllCommissioningClusterEndpointInformation
                           0x1'e279    0x32  Code  Gb  zcl_command_micro.o [26]
sendFromEui             0x2000'6774     0x8  Data  Lc  application-support.o [27]
sendFromSource          0x2000'6770     0x2  Data  Lc  application-support.o [27]
sendLeaveCommand             0xe79b    0x88  Code  Lc  leave.o [27]
sendMessage                  0xf671   0x154  Code  Lc  ota-client.o [26]
sendMessageToVerifyTransientLinkKey
                           0x2'73eb    0x84  Code  Lc  aps-security.o [23]
sendNeighborExchange       0x2'866d    0xa8  Code  Lc  neighbor-exchange.o [27]
sendNetworkKey             0x2'd063    0x10  Code  Lc  trust-center-util.o [23]
sendUnknownNetworkCommandResponse
                           0x2'12bb    0x52  Code  Gb  network.o [27]
sendUpdateDevice           0x2'70f1    0x4c  Code  Lc  aps-security.o [23]
sendZigDevRequestBuffer
                           0x2'e709    0x54  Code  Lc  zigbee-device-library.o [26]
sendZllUnicast             0x3'2e8b    0x3e  Code  Lc  zll-interpan.o [29]
send_command               0x1'e1e1    0x94  Code  Gb  zcl_command_micro.o [26]
sensor_basic_init_io_status_updata
                             0x5aeb    0xa4  Code  Gb  ias_zone_cluster.o [1]
sensor_init_io_status_set
                             0x4815    0x1c  Code  Gb  app_common.o [1]
serial_rx_handle             0x4d35    0x6a  Code  Lc  hal_uart_api.o [26]
serverEndpoint          0x2000'6823     0x1  Data  Lc  ota-client.o [26]
serverMask              0x2000'd7a4     0x2  Data  Gb  zigbee-device.o [27]
serverNodeId            0x2000'6824     0x2  Data  Lc  ota-client.o [26]
serviceDiscoveryComplete
                           0x2'7e5b    0x66  Code  Lc  service-discovery-common.o [26]
setCurCcaThreshold         0x1'b76b    0x22  Code  Lc  phy.o [27]
setEblStartOffset          0x1'cef3     0x8  Code  Lc  ota-storage-eeprom.o [26]
setInvalid                 0x2'deb5    0x12  Code  Lc  nvm3_cache.o [16]
setNonvolatileBinding        0xd9bb    0x2e  Code  Lc  binding-table.o [2]
setOrOverrideTrustCenterEui64
                           0x2'50f7    0x24  Code  Lc  aps-keys.o [23]
setRadioParameters         0x1'7a0d    0x54  Code  Lc  association.o [27]
setTimer                     0xeee5    0x64  Code  Lc  ota-client.o [26]
setTransactionExpirationTime
                           0x3'25e3    0x16  Code  Lc  zll-interpan.o [29]
set_ias_zone_enroll_state
                             0x5c25    0x1a  Code  Lc  ias_zone_cluster.o [1]
set_ias_zone_id              0x5c0b    0x1a  Code  Lc  ias_zone_cluster.o [1]
setupDiscoveryData         0x2'7e21    0x3a  Code  Lc  service-discovery-common.o [26]
setupSecurity                0xed19    0x96  Code  Lc  network-steering.o [26]
sfdRecvNotificationEnabled
                        0x2000'6a93     0x1  Data  Lc  phy.o [27]
shift                      0x2'5acf    0x12  Code  Lc  random.o [26]
shortIndirectPool       0x2000'6885     0x1  Data  Lc  mac-indirect.o [27]
sign_check_handle          0x1'3d11     0xe  Code  Gb  ecc_use.o [26]
sign_check_handle_base     0x1'3c55    0x9e  Code  Lc  ecc_use.o [26]
sign_is_ok                 0x1'3d01    0x10  Code  Gb  ecc_use.o [26]
sign_is_ok_base            0x1'3bdb    0x7a  Code  Gb  ecc_use.o [26]
single_id_init               0xa563    0x1c  Code  Lc  create_zigbee_dev.o [26]
single_id_insert             0xa57f    0x2a  Code  Lc  create_zigbee_dev.o [26]
singleton               0x2000'685b     0x1  Data  Lc  time-server.o [26]
singletonAttributeData  0x2000'ad70     0x4  Data  Gb  attribute-storage.o [26]
singleton_attr_location
                             0xa933    0xdc  Code  Gb  create_zigbee_dev.o [26]
sleepTimerInterruptOccurred
                        0x2000'aed0     0x1  Data  Lc  system-timer.o [14]
sleepyBroadcastInfo     0x2000'c140     0x1  Data  Lc  jit.o [27]
slotManagerContinueImageValidation
                           0x2'865b     0x4  Code  Gb  ota-client-policy.o [26]
smax                       0x2'a0af     0x8  Code  Lc  uECC.o [26]
snprintf                   0x2'5a6d    0x44  Code  Gb  snprintf.o [11]
socBootloaderSupportWriteHandler
                           0x1'd09f    0x24  Code  Lc  ota-storage-eeprom.o [26]
sprintf                    0x1'5659    0x40  Code  Gb  sprintf.o [11]
st_join_config             0x3'8178     0x8  Data  Gb  device_register.o [1]
st_zg_dev_config           0x3'8154    0x24  Data  Gb  device_register.o [1]
stackEvents                  0xcce0   0x118  Data  Gb  zigbee-stack.o [27]
stackTokenInfo             0x2'c75c    0x3c  Data  Lc  token-cache.o [27]
stack_on_init                0x77bb    0x5a  Code  Gb  zigbee_sdk_core.o [26]
stack_on_init_exit_mf        0x76b1    0x5e  Code  Lc  zigbee_sdk_core.o [26]
startChannelScan           0x2'5efd    0x8c  Code  Lc  scan.o [27]
startDownload                0xf52d    0x8e  Code  Lc  ota-client.o [26]
startNetworkOperation      0x1'6663    0x46  Code  Lc  association.o [27]
startPanIdScan             0x1'f241    0x5a  Code  Lc  form-and-join.o [26]
startScan                  0x1'f4e5    0x12  Code  Lc  form-and-join.o [26]
startServerDiscovery         0xf189    0x54  Code  Lc  ota-client.o [26]
startTimerNestingLevel  0x2000'c1a0     0x4  Data  Lc  rtcdriver.o [26]
startTransmission          0x2'23af    0x2c  Code  Lc  lower-mac-efr32.o [27]
start_soft_int_timer         0x61b5     0x8  Code  Lc  dev_evt_pool.o [26]
state                   0x2000'ae38     0x1  Data  Lc  zll-api.o [29]
state                   0x2000'bbbd     0x1  Data  Lc  find-and-bind-initiator.o [26]
stateLimit              0x2000'685d     0x1  Data  Lc  service-discovery-common.o [26]
stateMachineRun              0xecdb    0x3e  Code  Lc  network-steering.o [26]
stateTable              0x2000'bba4     0x4  Data  Lc  identify.o [26]
states                  0x2000'cfec    0x18  Data  Lc  end-device-support.o [26]
statesInitialized       0x2000'd7cc     0x1  Data  Lc  service-discovery-common.o [26]
staticCmd                  0x1'4d9c    0x20  Data  Lc  util.o [26]
status                     0x1'4dd1    0x1c  Code  Lc  call-command-handler.o [26]
storageHasFullImage     0x2000'bf24     0x1  Data  Lc  ota-storage-simple.o [26]
storageSlot             0x2000'd004     0x4  Data  Lc  bootloader-interface-app.o [26]
storeAndForwardDelayCount
                        0x2000'c14c     0x1  Data  Lc  store-forward.o [27]
storeAndForwardSubmitCount
                        0x2000'c14d     0x1  Data  Lc  store-forward.o [27]
storeData                    0xfa11     0xe  Code  Lc  ota-client.o [26]
storedKeysList          0x2000'6892     0x1  Data  Lc  aps-keys-transient.o [23]
storedNetworks          0x2000'6878     0x1  Data  Lc  network-steering-soc.o [26]
storedSleepControl      0x2000'bf2d     0x1  Data  Lc  ota-storage-eeprom-page-erase.o [26]
strchr                     0x3'3c41          Code  Gb  strchr.o [22]
strcpy                     0x1'11d1          Code  Gb  strcpy.o [22]
strlen                     0x1'1199          Code  Gb  strlen.o [22]
subBandConfigs             0x3'93e4    0x14  Data  Lc  radio_config_em3xxx_2.4GHz.o [27]
subBandParams              0x3'93d0    0x14  Data  Lc  radio_config_em3xxx_2.4GHz.o [27]
submitCount             0x2000'bfc1     0x1  Data  Lc  retry.o [27]
superRetriesIntervalForMacDataPoll
                        0x2000'bfac     0x1  Data  Lc  network.o [27]
suspendRadioOnAtStartup
                        0x2000'ae68     0x1  Data  Lc  zll-api.o [29]
symbolDelayCallbacks    0x2000'd45c     0x8  Data  Lc  symbol-timer.o [27]
systemTimerId           0x2000'aed4     0x4  Data  Lc  system-timer.o [14]
systick_handle               0x61bd    0x36  Code  Lc  dev_evt_pool.o [26]
tail                    0x2000'bcf5     0x1  Data  Lc  scan-dispatch.o [26]
tamper_info             0x2000'6cb4    0x10  Data  Gb  app_common.o [1]
targetEui64             0x2000'c184     0x8  Data  Lc  zll-interpan.o [29]
targetResponses         0x2000'bba8    0x14  Data  Lc  find-and-bind-initiator.o [26]
targetResponsesReceived
                        0x2000'bbbc     0x1  Data  Lc  find-and-bind-initiator.o [26]
tcLinkKeyUpdateRetryTimes
                        0x2000'b7f1     0x1  Data  Gb  update-tc-link-key.o [26]
tempdrvHighCallbacks    0x2000'd3d4    0x28  Data  Lc  tempdrv.o [26]
tempdrvLowCallbacks     0x2000'd40c    0x28  Data  Lc  tempdrv.o [26]
terminateScanRequest       0x2'2fdf    0x28  Code  Lc  zdo-channel.o [27]
theirLastTransactionId  0x2000'c178     0x4  Data  Lc  zll-interpan.o [29]
thrHard                    0x1'8baf    0x20  Code  Lc  nvm3.o [16]
thrSize                    0x1'8bfd     0xa  Code  Lc  nvm3.o [16]
thrSoftMinimum             0x1'8bcf    0x20  Code  Lc  nvm3.o [16]
thrSoftUser                0x1'8bef     0xe  Code  Lc  nvm3.o [16]
timeElapsed             0x2000'c1ac     0x1  Data  Lc  ustimer.o [26]
time_server_tick_update
                             0xd831    0x6a  Code  Gb  time_sync.o [26]
time_server_tick_update::last_tick
                        0x2000'ad14     0x4  Data  Lc  time_sync.o [26]
time_server_tick_update::remain_tick
                        0x2000'ad18     0x4  Data  Lc  time_sync.o [26]
timeoutPools               0x2'2c5d    0xd8  Code  Lc  mac-indirect.o [27]
timer                   0x2000'6af8    0xa0  Data  Lc  rtcdriver.o [26]
timerPrsConfig             0x2'd7c9    0x4c  Code  Lc  em_timer.o [26]
tokenArraySize             0x3'87a0    0x64  Data  Gb  token-def.o [26]
tokenDefaults              0x3'9000   0x190  Data  Gb  token-def.o [26]
tokenFlagsToSizeArray      0x3'3a80     0x4  Data  Lc  install-code-tokens.o [15]
tokenIsCnt                 0x3'8674    0x64  Data  Gb  token-def.o [26]
tokenIsIdx                 0x3'86d8    0x64  Data  Gb  token-def.o [26]
tokenNvm3Keys              0x3'84e4   0x190  Data  Gb  token-def.o [26]
tokenSize                  0x3'873c    0x64  Data  Gb  token-def.o [26]
tokensActive            0x2000'd7bf     0x1  Data  Lc  token.o [26]
totalImageSize          0x2000'ada0     0x4  Data  Lc  ota-client.o [26]
totalInitialChildren    0x2000'c05f     0x1  Data  Gb  zigbee-device-util.o [27]
total_singlone_token_attr_data
                        0x2000'8c4c     0x4  Data  Gb  create_zigbee_dev.o [26]
total_token_attr_data   0x2000'8c48     0x4  Data  Gb  create_zigbee_dev.o [26]
traceClkGet                0x1'628f    0x52  Code  Lc  em_cmu.o [26]
transactionExpirationTimeMS
                        0x2000'c180     0x4  Data  Lc  zll-interpan.o [29]
transientKeyFinish         0x3'36eb    0x38  Code  Lc  aps-keys-transient.o [23]
transportKeyFrameSizes     0x2'fa90     0x8  Data  Lc  packet-validate.o [21]
tryNextMethod                0xec49    0x2c  Code  Lc  network-steering.o [26]
tryToJoinNetwork             0xea71    0x6a  Code  Gb  network-steering.o [26]
tuya_sdk_log_init          0x2'e847     0x2  Code  Gb  tuya_sdk_callbacks.o [26]
tuya_sdk_patch_handle      0x2'e845     0x2  Code  Gb  tuya_sdk_callbacks.o [26]
tuya_sdk_patch_pid         0x2'e7df    0x62  Code  Lc  tuya_sdk_callbacks.o [26]
tuya_sdk_patch_pid_handle
                           0x2'e771    0x6e  Code  Lc  tuya_sdk_callbacks.o [26]
txCcaTries              0x2000'6a98     0x1  Data  Lc  phy.o [27]
txCompleted                0x2'24af    0x26  Code  Lc  lower-mac-efr32.o [27]
txCsmaTries                0x1'bc25    0xe6  Code  Lc  phy.o [27]
txOptions               0x2000'6ad0     0x4  Data  Lc  phy.o [27]
txParams                0x2000'6a80     0xc  Data  Lc  phy.o [27]
txSchedulerInfo         0x2000'658c     0xc  Data  Lc  phy.o [27]
txState                 0x2000'6a96     0x1  Data  Lc  phy.o [27]
typeSensitiveMemCopy       0x1'417d    0x84  Code  Gb  attribute-storage.o [26]
uECC_secp160r1             0x2'9dbd     0x6  Code  Gb  uECC.o [26]
uECC_verify                0x2'a0b7   0x33e  Code  Gb  uECC.o [26]
uECC_verify::_public    0x2000'ce24    0x40  Data  Lc  uECC.o [26]
uECC_verify::r          0x2000'cd04    0x20  Data  Lc  uECC.o [26]
uECC_verify::rx         0x2000'cce4    0x20  Data  Lc  uECC.o [26]
uECC_verify::ry         0x2000'cda4    0x20  Data  Lc  uECC.o [26]
uECC_verify::s          0x2000'cd24    0x20  Data  Lc  uECC.o [26]
uECC_verify::sum        0x2000'cd64    0x40  Data  Lc  uECC.o [26]
uECC_verify::tx         0x2000'cdc4    0x20  Data  Lc  uECC.o [26]
uECC_verify::ty         0x2000'cde4    0x20  Data  Lc  uECC.o [26]
uECC_verify::tz         0x2000'ce04    0x20  Data  Lc  uECC.o [26]
uECC_verify::u1         0x2000'ccc4    0x20  Data  Lc  uECC.o [26]
uECC_verify::u2         0x2000'cd44    0x20  Data  Lc  uECC.o [26]
uECC_verify::z          0x2000'cca4    0x20  Data  Lc  uECC.o [26]
uECC_vli_add               0x2'9673    0x30  Code  Lc  uECC.o [26]
uECC_vli_bytesToNative     0x2'9fcd    0x46  Code  Lc  uECC.o [26]
uECC_vli_clear             0x2'9531    0x20  Code  Lc  uECC.o [26]
uECC_vli_cmp_unsafe        0x2'95fb    0x30  Code  Lc  uECC.o [26]
uECC_vli_equal             0x2'962b    0x2a  Code  Lc  uECC.o [26]
uECC_vli_isZero            0x2'9551    0x2a  Code  Lc  uECC.o [26]
uECC_vli_mmod              0x2'981d   0x114  Code  Lc  uECC.o [26]
uECC_vli_mmod::mod_multiple
                        0x2000'cb24    0x40  Data  Lc  uECC.o [26]
uECC_vli_mmod::tmp      0x2000'cb64    0x40  Data  Lc  uECC.o [26]
uECC_vli_modAdd            0x2'97c7    0x32  Code  Lc  uECC.o [26]
uECC_vli_modInv            0x2'99c1   0x164  Code  Lc  uECC.o [26]
uECC_vli_modInv::a      0x2000'cc24    0x20  Data  Lc  uECC.o [26]
uECC_vli_modInv::b      0x2000'cc44    0x20  Data  Lc  uECC.o [26]
uECC_vli_modInv::u      0x2000'cc64    0x20  Data  Lc  uECC.o [26]
uECC_vli_modInv::v      0x2000'cc84    0x20  Data  Lc  uECC.o [26]
uECC_vli_modMult           0x2'9939    0x26  Code  Lc  uECC.o [26]
uECC_vli_modMult::product
                        0x2000'cba4    0x40  Data  Lc  uECC.o [26]
uECC_vli_modMult_fast      0x2'995f    0x22  Code  Lc  uECC.o [26]
uECC_vli_modMult_fast::product
                        0x2000'cbe4    0x40  Data  Lc  uECC.o [26]
uECC_vli_modSquare_fast
                           0x2'9981     0x6  Code  Lc  uECC.o [26]
uECC_vli_modSub            0x2'97f9    0x24  Code  Lc  uECC.o [26]
uECC_vli_mult              0x2'9703    0xc4  Code  Lc  uECC.o [26]
uECC_vli_numBits           0x2'95b1    0x2e  Code  Lc  uECC.o [26]
uECC_vli_rshift1           0x2'9655    0x1e  Code  Lc  uECC.o [26]
uECC_vli_set               0x2'95df    0x1c  Code  Lc  uECC.o [26]
uECC_vli_sub               0x2'96a3    0x32  Code  Lc  uECC.o [26]
uECC_vli_testBit           0x2'957b    0x18  Code  Lc  uECC.o [26]
uart0_init_flag         0x2000'd7b3     0x1  Data  Lc  hal_uart_api.o [26]
uart1_init_flag         0x2000'd7b4     0x1  Data  Lc  hal_uart_api.o [26]
uart_RxGpioWakeInit          0x4ddb    0x46  Code  Lc  hal_uart_api.o [26]
uart_config             0x2000'6ad4    0x14  Data  Gb  app_common.o [1]
uart_init                    0x4481    0x10  Code  Gb  app_common.o [1]
uart_printf                  0x4c57    0x1a  Code  Gb  hal_uart_api.o [26]
uart_queue_init              0x4ad9    0x20  Code  Lc  hal_uart_api.o [26]
uart_receive_input           0x4c71    0x4a  Code  Lc  hal_uart_api.o [26]
uart_rxGpioIntDisable        0x4e31    0x10  Code  Lc  hal_uart_api.o [26]
uart_rxGpioIntEnable         0x4e21    0x10  Code  Lc  hal_uart_api.o [26]
uart_rx_awkeup_flag     0x2000'd7b5     0x1  Data  Lc  hal_uart_api.o [26]
uart_rx_evt_handle           0x4d9f     0xe  Code  Lc  hal_uart_api.o [26]
unicastHead             0x2000'c090     0x1  Data  Lc  unicast-table.o [27]
unsolicitedChannelReport
                        0x2000'c072     0x1  Data  Lc  zdo-channel.o [27]
unusedOriginalChannelMaskCache
                        0x2000'bf9c     0x4  Data  Lc  scan.o [27]
unusedPanIdCache        0x2000'bf72     0x2  Data  Lc  scan.o [27]
unusualWakeupTimeout    0x2000'62ec     0x4  Data  Lc  zigbee_sdk_end_device_handle.o [26]
updateCurrentImageAttributes
                             0xeead     0x2  Code  Lc  ota-client.o [26]
updateCurrentOffset          0xf079    0x20  Code  Lc  ota-client.o [26]
updateDownloadFileVersion
                             0xf099     0x8  Code  Lc  ota-client.o [26]
updateEvents               0x1'c10f    0x4c  Code  Lc  phy.o [27]
updateInterrupts           0x2'e38b    0xc2  Code  Lc  tempdrv.o [26]
updateMinBlockRequestPeriodAttribute
                             0xeeaf     0x8  Code  Lc  ota-client.o [26]
updateTcLinkKeyState    0x2000'd7d8     0x1  Data  Lc  aps-keys.o [23]
upgradeEndResponseParse
                             0xfbed   0x102  Code  Lc  ota-client.o [26]
upperMacState           0x2000'bfd0    0x38  Data  Gb  upper-mac.o [27]
usart0_tx_data               0x4be1    0x24  Code  Lc  hal_uart_api.o [26]
usart1_tx_data               0x4c1d    0x24  Code  Lc  hal_uart_api.o [26]
useLegacyTimeoutMethod  0x2000'd7df     0x1  Data  Gb  child-handling.o [27]
usePageRequest          0x2000'ad87     0x1  Data  Lc  ota-client.o [26]
user_uart_disable            0x4a19    0x96  Code  Gb  hal_uart_api.o [26]
user_uart_init               0x4905   0x114  Code  Gb  hal_uart_api.o [26]
user_uart_send               0x4aaf    0x2a  Code  Gb  hal_uart_api.o [26]
vFillBuffer                0x1'5241   0x17e  Code  Lc  client-api.o [26]
vFillBufferExt             0x1'53bf   0x17a  Code  Lc  client-api.o [26]
validateObj                0x1'9507    0x26  Code  Lc  nvm3.o [16]
validateObjFragments       0x1'92db   0x226  Code  Lc  nvm3.o [16]
verifyMainBootloaderVersion
                           0x2'eef1    0x4c  Code  Lc  bootloader-interface-app.o [26]
vli_mmod_fast_secp160r1
                           0x2'9dc3    0x84  Code  Lc  uECC.o [26]
vli_modInv_update          0x2'9987    0x3a  Code  Lc  uECC.o [26]
vli_numDigits              0x2'9593    0x1e  Code  Lc  uECC.o [26]
waitStateMax               0x1'62e1     0xa  Code  Lc  em_cmu.o [26]
waitStateSet               0x1'62eb    0x44  Code  Lc  em_cmu.o [26]
waitingForResponse      0x2000'ad86     0x1  Data  Lc  ota-client.o [26]
wakeInfo                0x2000'c1b8     0x4  Data  Lc  sleep-efm32.o [26]
walkDelayQueue             0x2'44fd    0xde  Code  Lc  retry.o [27]
walkStoreAndForwardQueue
                           0x3'1041   0x108  Code  Lc  store-forward.o [27]
wallClockOverflowCnt    0x2000'c1a4     0x4  Data  Lc  rtcdriver.o [26]
wallClockTimeBase       0x2000'c1a8     0x4  Data  Lc  rtcdriver.o [26]
wdog0ClkGet                0x1'6331    0x50  Code  Lc  em_cmu.o [26]
wdog1ClkGet                0x1'6381    0x50  Code  Lc  em_cmu.o [26]
wordSize                0x2000'd7e9     0x1  Data  Lc  eeprom.o [26]
workBegin                  0x1'a0e7    0x16  Code  Lc  nvm3.o [16]
workEnd                    0x1'a0fd    0x14  Code  Lc  nvm3.o [16]
writeBurst              0x2000'5ef3    0x5a  Code  Gb  em_msc.o [26]
writeFullAllowed           0x1'8c07    0x18  Code  Lc  nvm3.o [16]
writeIdentifyTime          0x2'abd1    0x18  Code  Lc  identify.o [26]
writeMessage               0x1'0f2d    0xaa  Code  Lc  packet-buffer.o [27]
writeObj                   0x1'8da7   0x2b4  Code  Lc  nvm3.o [16]
writeServerAttribute         0xde61    0x10  Code  Lc  scenes.o [26]
writeTime                  0x2'f2d1    0x18  Code  Lc  time-server.o [26]
writeZllTokens             0x3'3069     0xc  Code  Lc  zll-tokens.o [29]
x_side_default             0x2'9c91    0x52  Code  Lc  uECC.o [26]
zcl_delay_send               0x7e79    0x4a  Code  Gb  zigbee_sdk_core.o [26]
zcl_group_send_result_handle
                             0x7ed1     0x2  Code  Lc  zigbee_sdk_core.o [26]
zcl_send_handle              0x7d31   0x10e  Code  Lc  zigbee_sdk_core.o [26]
zcl_send_queue_is_waitting_ack
                             0x7e3f    0x3a  Code  Lc  zigbee_sdk_core.o [26]
zdoConfigurationModeEnabled
                        0x2000'6888     0x1  Data  Gb  zigbee-device-util.o [27]
zeroLenByte             0x2000'd7a0     0x2  Data  Lc  message.o [26]
zeroLenBytePtr          0x2000'632c     0x4  Data  Lc  message.o [26]
zg_dev_init                0x2'5b05    0x24  Code  Gb  device_register.o [1]
zg_end_device_ota_end_handle
                             0x99e5     0xe  Code  Gb  zigbee_sdk_end_device_handle.o [26]
zg_end_device_ota_start_handle
                             0x99cb    0x1a  Code  Gb  zigbee_sdk_end_device_handle.o [26]
zg_end_device_send_data_handle
                             0x99a1    0x2a  Code  Gb  zigbee_sdk_end_device_handle.o [26]
zg_found_tuya_gw_is_valid
                             0x64b1    0x26  Code  Gb  network_manager.o [26]
zg_found_tuya_gw_time        0x64a3     0xe  Code  Gb  network_manager.o [26]
zg_get_join_gw_type          0x7119    0x1e  Code  Gb  network_manager.o [26]
zg_get_join_type             0x70fd    0x1c  Code  Gb  network_manager.o [26]
zg_identify_time_clear       0xc40d    0x34  Code  Gb  silicon_lab_modify.o [26]
zg_install_code_config     0x1'3eb1    0x46  Code  Gb  update-tc-link-key.o [26]
zg_is_allow_ota              0x653f     0xe  Code  Gb  network_manager.o [26]
zg_is_busy                   0x9763    0x66  Code  Gb  zigbee_sdk_end_device_handle.o [26]
zg_is_end_device             0x96a5    0x12  Code  Gb  zigbee_sdk_end_device_handle.o [26]
zg_is_join                   0x6689    0x16  Code  Gb  network_manager.o [26]
zg_join_tuya_gw_handle       0x647f    0x24  Code  Gb  network_manager.o [26]
zg_ota_end_callback          0x8499    0x32  Code  Gb  zigbee_sdk_core.o [26]
zg_ota_is_auto_start         0xc441     0x6  Code  Gb  silicon_lab_modify.o [26]
zg_ota_start_callback        0x848b     0xe  Code  Gb  zigbee_sdk_core.o [26]
zg_poll_control              0x9709    0x5a  Code  Gb  zigbee_sdk_end_device_handle.o [26]
zg_poll_end                  0x96f9     0xc  Code  Gb  zigbee_sdk_end_device_handle.o [26]
zg_poll_interval_change
                             0x96b7     0xa  Code  Gb  zigbee_sdk_end_device_handle.o [26]
zg_poll_manual               0x9705     0x4  Code  Gb  zigbee_sdk_end_device_handle.o [26]
zg_poll_start                0x96c1    0x38  Code  Gb  zigbee_sdk_end_device_handle.o [26]
zg_rejoin_inner              0x98ff     0xe  Code  Gb  zigbee_sdk_end_device_handle.o [26]
zg_rejoin_jump_over_all_scan
                             0x990d    0x3a  Code  Gb  zigbee_sdk_end_device_handle.o [26]
zg_rejoin_manual             0x98e5    0x1a  Code  Gb  zigbee_sdk_end_device_handle.o [26]
zg_sdk_flag_load             0x641f    0x60  Code  Gb  network_manager.o [26]
zg_sdk_info_join_type_centralized_set
                             0x652d    0x12  Code  Gb  network_manager.o [26]
zg_sdk_info_join_type_distribute_set
                             0x651b    0x12  Code  Gb  network_manager.o [26]
zg_sdk_info_save             0x63ed    0x32  Code  Gb  network_manager.o [26]
zg_sdk_save_tuya_gw_flag
                             0x64d7    0x44  Code  Gb  network_manager.o [26]
zg_wake_up                   0x968d    0x18  Code  Gb  zigbee_sdk_end_device_handle.o [26]
zigDevApsStruct         0x2000'c06c     0x4  Data  Lc  zigbee-device-util.o [27]
zigDevRequestRadius     0x2000'6895     0x1  Data  Gb  zigbee-device-common.o [26]
zigDevRequestSequence   0x2000'c05c     0x1  Data  Lc  zigbee-device-util.o [27]
zigDevRequestSequence   0x2000'd7ea     0x1  Data  Lc  zigbee-device-common.o [26]
zig_dev_desc_model         0x3'8140    0x14  Data  Gb  device_register.o [1]
zig_ias_enroll_request_with_client
                             0x5a49    0xa2  Code  Gb  ias_zone_cluster.o [1]
zig_report_battery_voltage
                             0x46df    0x76  Code  Gb  app_common.o [1]
zigbee_basic_info_install
                             0x825d   0x1e4  Code  Lc  zigbee_sdk_core.o [26]
zigbee_direct_ack            0x78cb    0x1c  Code  Gb  zigbee_sdk_core.o [26]
zigbee_join_handle           0x6b41   0x130  Code  Gb  network_manager.o [26]
zigbee_join_timeout_check
                             0x6aa9    0x26  Code  Gb  network_manager.o [26]
zigbee_sdk_scene_add_handle
                             0x84cb    0x52  Code  Gb  zigbee_sdk_core.o [26]
zigbee_sdk_scene_recall_handle
                             0x851d    0x58  Code  Gb  zigbee_sdk_core.o [26]
zigbee_sdk_scene_remove_before_add
                           0x1'd777     0x4  Code  Wk  scenes.o [26]
zigbee_short_addr_check
                             0x6acf    0x30  Code  Gb  network_manager.o [26]
zigbee_short_addr_init       0x6aff     0xa  Code  Gb  network_manager.o [26]
zllNodeType             0x2000'ae39     0x1  Data  Lc  zll-api.o [29]
zllPrimaryChannelMask   0x2000'ae4c     0x4  Data  Lc  zll-api.o [29]
zllSequenceNum          0x2000'd7e3     0x1  Data  Lc  zll-interpan.o [29]


[1] = D:\tuyaOS\tuya-zigbee-sdk-mg21\app\simple_contact_sensor\EFR32MG21A020F768\build\obj
[2] = binding-table-library.a
[3] = cbke-163k1-stub-library.a
[4] = cbke-283k1-stub-library.a
[5] = cbke-library-dsa-sign-stub.a
[6] = cbke-library-dsa-verify-283k1-stub.a
[7] = cbke-library-dsa-verify-stub.a
[8] = cbke-stub-library.a
[9] = debug-basic-stub-library.a
[10] = debug-extended-stub-library.a
[11] = dl7M_tln.a
[12] = end-device-bind-stub-library.a
[13] = gp-stub-library.a
[14] = hal-library.a
[15] = install-code-library.a
[16] = libnvm3_CM33_iar.a
[17] = librail_efr32xg21_iar_release.a
[18] = m7M_tls.a
[19] = mfglib-library.a
[20] = multi-network-stub-library.a
[21] = packet-validate-library.a
[22] = rt7M_tl.a
[23] = security-library-core.a
[24] = security-library-link-keys-stub.a
[25] = sim-eeprom2-to-nvm3-upgrade-stub-library.a
[26] = tuya_sdk.a
[27] = zigbee-pro-stack.a
[28] = zigbee-r22-support-stub-library.a
[29] = zll-library.a

  211'736 bytes of readonly  code memory
      352 bytes of readwrite code memory
   13'702 bytes of readonly  data memory
   99'279 bytes of readwrite data memory

Errors: none
Warnings: none
